(dp1
I805
(lp2
I1055
aI1054
aI1056
aI974
asI880
(lp3
I1303
aI1302
aI1384
asI881
(lp4
I1221
aI1302
aI1303
asI882
(lp5
I1140
aI1139
aI1221
aI1220
asI883
(lp6
I1138
aI1137
aI1139
aI1057
asI884
(lp7
I1056
aI1055
aI1057
asI885
(lp8
I1055
aI1054
aI974
aI975
asI886
(lp9
I973
aI972
aI974
asI887
(lp10
I972
aI971
aI891
asI888
(lp11
I890
aI889
aI891
asI889
(lp12
I888
aI887
aI889
asI890
(lp13
I887
aI886
aI888
asI891
(lp14
I886
aI885
asI959
(lp15
I1385
aI1384
aI1466
aI1465
asI960
(lp16
I1303
aI1384
aI1385
asI961
(lp17
I1221
aI1303
aI1302
asI962
(lp18
I1140
aI1139
aI1221
aI1220
asI963
(lp19
I1057
aI1139
aI1138
asI964
(lp20
I1056
aI1055
aI1057
asI965
(lp21
I975
aI974
aI1055
aI1056
asI966
(lp22
I973
aI972
aI974
asI967
(lp23
I891
aI972
asI968
(lp24
I890
aI889
aI891
asI969
(lp25
I889
aI888
asI970
(lp26
I887
aI886
aI888
asI971
(lp27
I886
aI885
aI805
asI972
(lp28
I884
aI883
aI885
aI805
asI973
(lp29
I883
aI882
aI884
asI974
(lp30
I882
aI881
asI975
(lp31
I881
aI880
asI1036
(lp32
I1711
aI1792
asI1037
(lp33
I1548
aI1629
asI1038
(lp34
I1466
aI1548
aI1547
asI1039
(lp35
I1385
aI1384
aI1466
asI1040
(lp36
I1303
aI1385
aI1384
asI1041
(lp37
I1221
aI1303
aI1302
asI1042
(lp38
I1140
aI1139
aI1221
aI1220
asI1043
(lp39
I1139
aI1138
aI1140
asI1044
(lp40
I1057
aI1056
asI1045
(lp41
I975
aI974
aI1056
aI1055
asI1046
(lp42
I973
aI972
aI974
aI975
asI1047
(lp43
I891
aI972
aI973
asI1048
(lp44
I890
aI889
aI891
asI1049
(lp45
I889
aI888
aI890
asI1050
(lp46
I888
aI887
aI889
asI1051
(lp47
I805
asI1052
(lp48
I805
asI1053
(lp49
I805
asI1054
(lp50
sI1055
(lp51
sI1056
(lp52
sI1057
(lp53
sI1113
(lp54
I2037
asI1114
(lp55
sI1115
(lp56
I1874
asI1116
(lp57
I1711
aI1792
asI1117
(lp58
I1629
aI1711
asI1118
(lp59
I1548
aI1629
asI1119
(lp60
I1385
aI1466
asI1120
(lp61
I1385
aI1384
aI1466
asI1121
(lp62
I1303
aI1385
asI1122
(lp63
I1140
aI1221
aI1303
asI1123
(lp64
I1139
aI1138
aI1140
aI1221
asI1124
(lp65
I1057
aI1056
aI1139
asI1125
(lp66
I975
aI1056
aI1057
asI1126
(lp67
I974
aI973
aI975
asI1127
(lp68
I973
aI974
asI1128
(lp69
I891
aI890
asI1129
(lp70
I890
aI889
aI891
asI1130
(lp71
I889
aI888
aI890
asI1131
(lp72
sI1132
(lp73
I805
asI1133
(lp74
I805
asI1134
(lp75
I805
asI1135
(lp76
I805
asI1136
(lp77
I805
asI1137
(lp78
I805
asI1138
(lp79
I805
asI1139
(lp80
sI1140
(lp81
sI1191
(lp82
sI1192
(lp83
sI1193
(lp84
sI1194
(lp85
sI1195
(lp86
I1874
asI1196
(lp87
I1874
asI1197
(lp88
I1711
asI1198
(lp89
I1548
aI1629
asI1199
(lp90
I1466
aI1548
asI1200
(lp91
I1385
aI1466
aI1548
asI1201
(lp92
I1303
aI1385
asI1202
(lp93
I1221
aI1303
asI1203
(lp94
I1140
aI1139
aI1221
asI1204
(lp95
I1057
aI1139
aI1140
asI1205
(lp96
I1057
aI1056
asI1206
(lp97
I975
aI974
aI1057
asI1207
(lp98
I974
aI975
asI1208
(lp99
I891
asI1209
(lp100
I891
aI890
asI1210
(lp101
I890
aI891
asI1211
(lp102
sI1212
(lp103
sI1213
(lp104
sI1214
(lp105
I805
asI1215
(lp106
I805
asI1216
(lp107
I805
asI1217
(lp108
I805
asI1218
(lp109
sI1219
(lp110
sI1220
(lp111
sI1221
(lp112
sI1269
(lp113
sI1270
(lp114
sI1271
(lp115
sI1272
(lp116
sI1273
(lp117
sI1274
(lp118
sI1275
(lp119
sI1276
(lp120
sI1277
(lp121
I1711
asI1278
(lp122
I1711
asI1279
(lp123
I1548
asI1280
(lp124
I1548
asI1281
(lp125
I1385
asI1282
(lp126
I1303
aI1385
asI1283
(lp127
I1221
aI1303
asI1284
(lp128
I1140
aI1139
aI1221
asI1285
(lp129
I1057
aI1140
aI1139
asI1286
(lp130
I975
aI1057
asI1287
(lp131
I975
aI974
aI1057
asI1288
(lp132
I975
aI974
asI1289
(lp133
I891
asI1290
(lp134
I891
asI1291
(lp135
I891
asI1292
(lp136
sI1293
(lp137
sI1294
(lp138
sI1295
(lp139
sI1296
(lp140
sI1297
(lp141
sI1298
(lp142
sI1299
(lp143
sI1300
(lp144
sI1301
(lp145
sI1302
(lp146
sI1303
(lp147
sI1347
(lp148
sI1348
(lp149
sI1349
(lp150
sI1350
(lp151
sI1351
(lp152
sI1352
(lp153
sI1353
(lp154
sI1354
(lp155
sI1355
(lp156
sI1356
(lp157
sI1357
(lp158
sI1358
(lp159
sI1359
(lp160
I1548
asI1360
(lp161
sI1361
(lp162
sI1362
(lp163
I1385
asI1363
(lp164
I1303
aI1385
asI1364
(lp165
sI1365
(lp166
I1140
aI1139
asI1369
(lp167
I975
asI1370
(lp168
I975
asI1371
(lp169
I975
asI1372
(lp170
sI1373
(lp171
sI1374
(lp172
sI1375
(lp173
sI1376
(lp174
sI1377
(lp175
sI1378
(lp176
sI1379
(lp177
sI1380
(lp178
sI1381
(lp179
sI1382
(lp180
sI1383
(lp181
I2213
aI2214
aI2215
aI2216
aI2217
aI2218
aI2219
asI1384
(lp182
I2213
aI2214
aI2215
aI2296
aI2295
aI2217
aI2216
aI2218
aI2219
aI2140
aI2139
aI2141
aI2062
aI2061
aI2063
aI2064
aI1985
aI1984
aI1986
aI1907
aI1906
aI1908
aI1909
aI1830
aI1829
aI1831
aI2220
aI2142
aI2065
aI1987
asI1385
(lp183
I2217
aI2216
aI2218
aI2219
aI2140
aI2139
aI2141
aI2142
aI2063
aI2062
aI2064
aI1985
aI1984
aI1986
aI1987
aI1908
aI1907
aI2296
aI1909
aI1910
aI1831
aI1830
aI1759
aI1603
aI1753
aI1752
aI2061
aI1906
aI1829
asI1426
(lp184
I2456
asI1427
(lp185
I2456
asI1428
(lp186
sI1429
(lp187
sI1430
(lp188
sI1431
(lp189
sI1432
(lp190
sI1433
(lp191
sI1434
(lp192
sI1435
(lp193
sI1436
(lp194
sI1437
(lp195
sI1438
(lp196
sI1439
(lp197
sI1440
(lp198
sI1455
(lp199
sI1456
(lp200
sI1457
(lp201
sI1458
(lp202
sI1459
(lp203
sI1460
(lp204
sI1461
(lp205
sI1462
(lp206
I2213
aI2214
aI2215
aI2216
aI2217
aI2218
aI2139
aI2138
aI2140
aI2141
aI2142
aI2295
aI2219
asI1463
(lp207
I2213
aI2214
aI2215
aI2216
aI2217
aI2218
aI2219
aI2220
aI2141
aI2140
aI2142
aI2063
aI2062
aI2064
aI2065
aI1986
aI1985
aI1987
aI1908
aI1907
aI1909
aI1830
aI1829
aI1831
aI1752
aI1751
aI1753
aI1674
aI2143
aI2139
aI2138
asI1464
(lp208
I2220
aI2219
aI2141
aI2140
aI2142
aI2063
aI2062
aI2064
aI2065
aI1986
aI1985
aI1987
aI1908
aI1907
aI1909
aI1830
aI1829
aI1831
aI1753
aI1752
aI1759
aI1680
aI1681
aI1603
aI1604
aI1605
aI1606
aI1607
aI1608
aI1609
aI1675
aI1674
aI1751
asI1465
(lp209
I1831
aI1753
aI1752
aI1614
aI1613
aI1696
aI1695
aI1777
aI1776
aI1778
aI1859
aI1858
aI1860
aI1941
aI1940
aI2022
aI2021
aI2023
aI2104
aI2103
aI2105
aI2186
aI2185
aI2187
aI2268
aI2267
aI2349
aI2348
aI2350
aI2431
aI2430
aI2432
aI2513
aI2512
aI2514
aI2595
aI2594
aI2676
aI2675
aI2677
aI2758
aI2757
aI2840
aI2839
aI1697
aI1779
aI1780
aI1861
aI1942
aI2024
aI2106
aI2269
aI1759
aI1680
aI1681
aI1603
aI1604
aI1605
aI1606
aI1607
aI1608
aI1609
asI1466
(lp210
I1614
aI1613
aI1696
aI1695
aI1697
aI1778
aI1777
aI1859
aI1858
aI1860
aI1941
aI1940
aI1942
aI2023
aI2022
aI2024
aI2105
aI2104
aI2186
aI2185
aI2187
aI2268
aI2267
aI2269
aI2350
aI2349
aI2432
aI2431
aI2514
aI2513
aI2595
aI2594
aI2677
aI2676
aI2758
aI2840
aI2842
aI2923
aI2924
aI3005
aI3004
aI3006
aI3087
aI3086
aI3088
aI3089
aI3170
aI3169
aI3171
aI3417
aI3498
aI3497
aI3499
aI3580
aI3579
aI2921
aI2920
aI3003
aI3085
aI3168
aI3167
aI3250
aI3496
aI1776
aI2021
aI2103
aI2348
aI2430
aI2512
aI2675
aI2757
aI2839
asI1504
(lp211
I2222
aI2144
asI1505
(lp212
I2222
asI1506
(lp213
I2299
asI1507
(lp214
I2299
asI1508
(lp215
sI1509
(lp216
sI1510
(lp217
sI1511
(lp218
sI1512
(lp219
sI1513
(lp220
sI1514
(lp221
sI1515
(lp222
sI1516
(lp223
sI1517
(lp224
sI1518
(lp225
sI1519
(lp226
sI1541
(lp227
I2215
aI2214
aI2216
aI2217
aI2218
aI2139
aI2138
aI2140
aI2141
aI2062
aI2061
aI2063
aI2064
aI2065
aI1986
aI1985
aI2219
aI2220
aI2142
aI2297
aI2213
aI2296
asI1542
(lp228
I2295
aI2216
aI2215
aI2217
aI2218
aI2219
aI2140
aI2139
aI2141
aI2142
aI2143
aI2064
aI2063
aI2065
aI1986
aI1985
aI1987
aI1988
aI1909
aI1908
aI1910
aI1831
aI1830
aI1753
aI1752
aI1675
aI1597
aI1674
aI2214
aI2138
aI2062
aI2061
asI1543
(lp229
I2143
aI2142
aI2064
aI2063
aI2065
aI1986
aI1985
aI1987
aI1908
aI1907
aI1909
aI1830
aI1829
aI1831
aI1753
aI1752
aI1674
aI1675
aI1603
aI1604
aI1605
aI1686
aI1685
aI1687
aI1688
aI1689
aI1690
aI1691
aI1692
aI1693
aI1694
aI1695
aI1696
aI1697
aI1607
aI1606
aI1608
aI1609
aI1610
aI1611
aI1612
aI1613
aI1614
aI1988
aI1910
aI1597
asI1544
(lp230
I1675
aI1674
aI1603
aI1604
aI1605
aI1697
aI1779
aI1778
aI1780
aI1861
aI1860
aI1942
aI1941
aI2024
aI2023
aI2105
aI2104
aI2106
aI2187
aI2186
aI2269
aI2268
aI2350
aI2349
aI2432
aI2431
aI2513
aI2512
aI2514
aI2595
aI2594
aI2676
aI2675
aI2677
aI2758
aI2757
aI2839
aI2838
aI2840
aI2921
aI2920
aI3003
aI3002
aI3084
aI3083
aI1686
aI1685
aI1687
aI1688
aI1689
aI1690
aI1691
aI1692
aI1693
aI1694
aI1695
aI1696
asI1545
(lp231
I1697
aI1779
aI1778
aI1780
aI1861
aI1860
aI1942
aI1941
aI2024
aI2023
aI2106
aI2105
aI2187
aI2186
aI2269
aI2268
aI2350
aI2349
aI2432
aI2431
aI2514
aI2513
aI2595
aI2594
aI2677
aI2676
aI2758
aI2757
aI2840
aI2839
aI2921
aI2920
aI2923
aI3004
aI3003
aI3005
aI3006
aI3087
aI3086
aI3088
aI3169
aI3168
aI3170
aI3171
aI3417
aI3418
aI3499
aI3498
aI3500
aI3501
aI3582
aI3581
aI3085
aI3084
aI3166
aI3165
aI3167
aI3249
aI3248
aI3250
aI3331
aI3497
aI2104
aI2512
aI2675
aI2838
aI3002
aI3083
asI1546
(lp232
I2921
aI2920
aI2923
aI3004
aI3003
aI3005
aI3086
aI3085
aI3087
aI3168
aI3167
aI3169
aI3170
aI3250
aI3497
aI3496
aI3498
aI3499
aI3580
aI3579
aI2840
aI3581
aI3582
aI3502
aI3583
aI3006
aI3088
aI3171
aI3417
aI3418
aI3500
aI3501
asI1547
(lp233
I3581
aI3580
aI3582
aI3502
aI2799
aI2720
aI2641
aI2640
aI2642
aI2563
aI2562
aI2564
aI2485
aI2484
aI2486
aI2407
aI2406
asI1548
(lp234
I2799
aI2720
aI2641
aI2640
aI2642
aI2563
aI2562
aI2484
aI2483
aI2485
aI2406
aI2405
aI2407
aI2408
aI2409
aI2410
aI2411
aI2412
aI2413
aI2414
aI2415
aI2416
aI2564
aI2486
asI1583
(lp235
I2144
aI2066
aI1988
asI1584
(lp236
I2144
aI2066
asI1585
(lp237
I2222
aI2144
aI2066
asI1586
(lp238
I2222
aI2144
asI1587
(lp239
I2299
aI2222
asI1588
(lp240
I2299
aI2222
asI1589
(lp241
I2299
asI1590
(lp242
sI1591
(lp243
sI1592
(lp244
sI1593
(lp245
sI1594
(lp246
sI1595
(lp247
sI1596
(lp248
sI1597
(lp249
sI1603
(lp250
sI1604
(lp251
sI1605
(lp252
sI1606
(lp253
sI1607
(lp254
sI1608
(lp255
sI1609
(lp256
sI1610
(lp257
sI1611
(lp258
sI1612
(lp259
sI1613
(lp260
sI1614
(lp261
sI1623
(lp262
I1607
aI1606
aI1608
aI1609
aI1610
aI1611
aI1612
aI1613
aI1614
aI1696
aI1695
aI1697
aI1780
aI2024
aI2106
aI2187
aI2269
aI2350
aI2432
aI2514
aI2513
aI2595
aI2677
aI2676
aI2758
aI2840
aI2839
aI2921
aI3003
aI3002
aI3084
aI3083
aI3085
aI3166
aI3165
aI3247
aI3246
aI3248
aI3328
aI3004
aI1604
aI1603
aI1605
aI1688
aI1687
aI1689
aI1690
aI1691
aI1692
aI1773
aI1772
aI1774
aI1775
aI1776
aI1857
aI1856
aI1858
aI1859
aI1860
aI1861
aI1942
aI1941
asI1624
(lp263
I1780
aI2024
aI2106
aI2187
aI2269
aI2350
aI2432
aI2514
aI2513
aI2595
aI2677
aI2676
aI2758
aI2757
aI2840
aI2839
aI2921
aI2920
aI3003
aI3002
aI3084
aI3083
aI3085
aI3086
aI3167
aI3166
aI3168
aI3169
aI3250
aI3249
aI3337
aI3418
aI3417
aI3419
aI3420
aI3501
aI3500
aI3502
aI3329
aI3328
aI3330
aI3331
aI3499
aI3165
aI3247
aI3246
aI3248
asI1625
(lp264
I3085
aI3084
aI3166
aI3165
aI3167
aI3168
aI3249
aI3248
aI3250
aI3331
aI3417
aI3498
aI3497
aI3499
aI3500
aI3501
aI3582
aI3581
aI3583
aI3086
aI3169
aI3337
aI3418
aI3419
aI3420
aI3502
asI1626
(lp265
I3583
aI3582
aI2799
aI2720
aI2641
aI2640
aI2642
aI2563
aI2562
aI2564
aI2485
aI2484
aI2486
aI2407
aI2406
aI2408
asI1627
(lp266
I2799
aI2720
aI2641
aI2640
aI2642
aI2563
aI2562
aI2564
aI2485
aI2484
aI2486
aI2407
aI2406
aI2408
aI2409
aI2410
aI2411
aI2412
aI2413
aI2414
aI2415
aI2416
aI2417
asI1628
(lp267
I2408
aI2407
aI2409
aI2410
aI2411
aI2412
aI2413
aI2414
aI2415
aI2416
aI2417
aI2418
aI2499
aI2498
aI2500
asI1629
(lp268
I2417
aI2416
aI2418
aI2499
aI2498
aI2419
aI2500
asI1661
(lp269
I1910
asI1662
(lp270
I1910
asI1663
(lp271
I1988
aI1910
asI1664
(lp272
I1988
aI1910
asI1665
(lp273
I2066
aI1988
aI1910
asI1666
(lp274
I2144
aI2066
aI1988
asI1667
(lp275
I2222
aI2144
aI2066
asI1668
(lp276
I2222
aI2221
aI2144
aI2066
asI1669
(lp277
I2299
aI2222
aI2221
aI2144
asI1670
(lp278
I2299
aI2298
aI2222
aI2221
asI1671
(lp279
I2298
aI2299
asI1672
(lp280
I2298
asI1673
(lp281
sI1674
(lp282
sI1675
(lp283
sI1680
(lp284
sI1681
(lp285
sI1682
(lp286
sI1683
(lp287
sI1684
(lp288
sI1685
(lp289
sI1686
(lp290
sI1687
(lp291
sI1688
(lp292
sI1689
(lp293
sI1690
(lp294
sI1691
(lp295
sI1692
(lp296
sI1693
(lp297
sI1694
(lp298
sI1695
(lp299
sI1696
(lp300
sI1697
(lp301
I2213
aI2214
aI2215
aI2216
aI2217
aI2218
aI2219
aI2295
aI2296
aI2297
asI1705
(lp302
I2799
aI2720
aI2641
aI2640
aI2642
aI2563
aI2562
aI2564
aI2565
aI2486
aI2485
aI2487
aI2408
aI2407
aI2409
aI2719
aI2484
asI1706
(lp303
I2799
aI2720
aI2641
aI2640
aI2642
aI2563
aI2562
aI2564
aI2485
aI2484
aI2486
aI2407
aI2406
aI2408
aI2409
aI2410
aI2411
aI2412
aI2413
aI2414
aI2415
aI2416
aI2417
aI2565
aI2487
asI1707
(lp304
I2409
aI2408
aI2410
aI2411
aI2412
aI2413
aI2414
aI2415
aI2416
aI2417
aI2418
aI2499
aI2498
aI2500
aI2497
asI1708
(lp305
I2418
aI2417
aI2499
aI2498
aI2500
aI2419
asI1709
(lp306
I2419
aI2418
aI2500
aI2499
aI2255
aI2254
aI2336
aI2335
aI2337
aI2417
asI1710
(lp307
I2255
aI2254
aI2336
aI2335
aI2337
aI2418
aI2417
aI2170
aI2169
aI2171
aI2172
aI2253
aI2252
asI1711
(lp308
I2170
aI2169
aI2171
aI2172
aI2253
aI2252
aI2254
aI2166
aI2165
aI2167
aI2168
asI1740
(lp309
sI1741
(lp310
sI1742
(lp311
sI1743
(lp312
sI1744
(lp313
sI1745
(lp314
I1910
asI1746
(lp315
I1988
aI1910
asI1747
(lp316
I2066
aI1988
aI1910
asI1748
(lp317
I2144
aI2066
aI1988
aI1910
aI1909
asI1749
(lp318
I2222
aI2144
aI2143
aI2066
aI1988
asI1750
(lp319
I2222
aI2221
aI2144
aI2143
aI2066
aI2065
asI1751
(lp320
I2299
aI2298
aI2222
aI2221
aI2144
aI2143
asI1752
(lp321
I2298
aI2297
aI2299
aI2222
aI2221
asI1753
(lp322
I2298
aI2297
aI2299
asI1759
(lp323
sI1760
(lp324
sI1761
(lp325
sI1762
(lp326
sI1763
(lp327
sI1764
(lp328
sI1765
(lp329
sI1766
(lp330
sI1767
(lp331
sI1768
(lp332
sI1769
(lp333
sI1770
(lp334
sI1771
(lp335
sI1772
(lp336
sI1773
(lp337
sI1774
(lp338
sI1775
(lp339
I2213
aI2214
aI2215
aI2216
aI2217
aI2218
aI2295
aI2296
aI2297
asI1776
(lp340
I2295
aI2216
aI2215
aI2217
aI2218
aI2219
aI2140
aI2139
aI2141
aI2142
aI2143
aI2064
aI2063
aI2220
aI2221
aI2213
aI2214
asI1777
(lp341
I2295
aI2296
aI2297
aI2218
aI2217
aI2219
aI2220
aI2141
aI2140
aI2142
aI2143
aI2064
aI2063
aI2065
aI1986
aI1985
aI1987
aI1908
aI1907
aI1909
aI1830
aI1829
aI1831
aI1752
aI1988
aI1910
aI2216
aI2215
aI2139
asI1778
(lp342
I2220
aI2219
aI2141
aI2140
aI2142
aI2143
aI2064
aI2063
aI2065
aI1986
aI1985
aI1987
aI1988
aI1909
aI1908
aI1910
aI1831
aI1753
aI1752
aI1675
aI1907
aI1830
aI1829
asI1779
(lp343
I1987
aI1986
aI1988
aI1909
aI1908
aI1910
aI1831
aI1830
aI1753
aI1752
aI1675
aI1674
aI1603
aI1604
aI1605
aI1606
aI1607
aI1608
aI1609
aI1610
aI1691
aI1690
aI1692
aI1693
aI1694
aI1695
aI1696
aI1697
aI1612
aI1611
aI1613
aI1614
asI1780
(lp344
I1614
aI1613
aI1696
aI1695
aI1697
aI1778
aI1777
aI1859
aI1858
aI1860
aI1941
aI1940
aI1942
aI2023
aI2022
aI2024
aI2105
aI2104
aI2186
aI2185
aI2187
aI2268
aI2267
aI2269
aI2350
aI2349
aI2431
aI2430
aI2432
aI2513
aI2512
aI2514
aI2595
aI2594
aI2677
aI2676
aI2758
aI2757
aI2840
aI2839
aI1780
aI2106
aI1603
aI1604
aI1605
aI1606
aI1607
aI1608
aI1609
aI1610
aI1691
aI1690
aI1692
aI1693
aI1694
asI1786
(lp345
I2410
aI2409
aI2411
aI2412
aI2413
aI2414
aI2415
aI2416
aI2417
aI2498
aI2497
aI2499
aI2500
aI2501
asI1787
(lp346
I2498
aI2497
aI2499
aI2500
aI2417
aI2419
aI2501
asI1788
(lp347
I2419
aI2418
aI2500
aI2499
aI2336
aI2335
aI2337
aI2417
aI2255
asI1789
(lp348
I2255
aI2254
aI2336
aI2335
aI2337
aI2418
aI2417
aI2171
aI2170
aI2172
aI2253
aI2252
asI1790
(lp349
I2170
aI2169
aI2171
aI2172
aI2253
aI2252
aI2254
aI2166
aI2165
aI2167
aI2168
asI1791
(lp350
I2166
aI2165
aI2167
aI2168
aI2169
aI2162
aI2161
aI2163
aI2164
asI1792
(lp351
I2161
aI2160
aI2162
aI2163
aI2164
aI2165
aI2318
aI2317
aI2319
aI2239
asI1818
(lp352
sI1819
(lp353
sI1820
(lp354
sI1821
(lp355
sI1822
(lp356
sI1823
(lp357
sI1824
(lp358
sI1825
(lp359
sI1826
(lp360
sI1827
(lp361
sI1828
(lp362
I1988
aI1910
aI1909
aI1831
aI1753
asI1829
(lp363
I2066
aI1988
aI1987
aI1910
aI1909
aI1831
aI1753
asI1830
(lp364
I2144
aI2066
aI2065
aI1988
aI1987
aI1910
aI1909
aI1831
asI1831
(lp365
I2222
aI2144
aI2143
aI2066
aI2065
aI1988
aI1987
asI1838
(lp366
sI1839
(lp367
sI1840
(lp368
I2296
aI2295
asI1841
(lp369
sI1842
(lp370
sI1843
(lp371
sI1844
(lp372
sI1845
(lp373
sI1846
(lp374
sI1847
(lp375
sI1848
(lp376
sI1849
(lp377
sI1850
(lp378
sI1851
(lp379
sI1852
(lp380
I2295
aI2296
asI1853
(lp381
I2215
aI2214
aI2216
aI2217
aI2218
aI2219
aI2220
aI2297
aI2296
aI2298
aI2295
asI1854
(lp382
I2295
aI2296
aI2217
aI2216
aI2218
aI2219
aI2140
aI2139
aI2141
aI2142
aI2143
aI2064
aI2063
aI2221
aI2220
aI2215
aI2214
asI1855
(lp383
I2295
aI2296
aI2297
aI2218
aI2217
aI2219
aI2220
aI2141
aI2140
aI2142
aI2143
aI2064
aI2063
aI2065
aI1986
aI1985
aI1987
aI1908
aI1907
aI1909
aI1830
aI1829
aI1831
aI2066
aI1988
aI1910
aI2216
aI2139
asI1856
(lp384
I2219
aI2218
aI2220
aI2221
aI2142
aI2141
aI2143
aI2064
aI2063
aI2065
aI2066
aI1987
aI1986
aI1988
aI1909
aI1908
aI1910
aI1831
aI1830
aI1753
aI1675
aI1597
aI1752
aI1674
aI2140
aI1985
aI1907
aI1829
asI1857
(lp385
I2065
aI2064
aI1986
aI1985
aI1987
aI1988
aI1909
aI1908
aI1910
aI1831
aI1830
aI1752
aI1753
aI1603
aI1604
aI2066
aI1675
aI1597
asI1858
(lp386
I1753
aI1752
aI1675
aI1609
aI1608
aI1610
aI1691
aI1690
aI1692
aI1693
aI1774
aI1773
aI1775
aI1776
aI1857
aI1856
aI1858
aI1859
aI1940
aI1939
aI1941
aI1942
aI2023
aI2022
aI2024
aI2106
aI2105
aI1614
aI1697
aI1696
aI1779
aI1778
aI1780
aI1861
aI1860
aI1603
aI1604
asI1859
(lp387
I1612
aI1611
aI1613
aI1614
aI1697
aI1780
aI2024
aI2106
aI2187
aI2269
aI2350
aI2432
aI2514
aI2513
aI2595
aI2677
aI2676
aI2758
aI2757
aI2840
aI2839
aI2921
aI2920
aI3003
aI3002
aI3084
aI3083
aI3085
aI3166
aI3165
aI3247
aI3246
aI1609
aI1608
aI1610
aI1691
aI1690
aI1692
aI1693
aI1774
aI1773
aI1775
aI1776
aI1857
aI1856
aI1858
aI1859
aI1940
aI1939
aI1941
aI1942
aI2023
aI2022
aI2105
asI1860
(lp388
I1780
aI2024
aI2106
aI2187
aI2269
aI2350
aI2432
aI2514
aI2513
aI2595
aI2677
aI2676
aI2758
aI2840
aI2839
aI2921
aI2923
aI3004
aI3003
aI3005
aI3086
aI3085
aI3087
aI3088
aI3169
aI3168
aI3170
aI3250
aI3417
aI3498
aI3497
aI3499
aI3580
aI3579
aI3581
aI3248
aI3247
aI3329
aI3328
aI3330
aI3331
aI3412
aI3496
aI3578
aI2757
aI2920
aI3002
aI3084
aI3083
aI3166
aI3165
aI3246
asI1861
(lp389
I2840
aI2921
aI2923
aI3004
aI3003
aI3085
aI3084
aI3086
aI3167
aI3166
aI3168
aI3249
aI3248
aI3250
aI3331
aI3330
aI3412
aI3494
aI3575
aI3577
aI3578
aI3499
aI3498
aI3500
aI3501
aI3421
aI3582
aI3581
aI3502
aI3005
aI3087
aI3088
aI3169
aI3170
aI3417
aI3497
aI3580
aI3579
asI1868
(lp390
I2336
aI2335
aI2337
aI2419
aI2418
aI2255
aI2172
aI2171
aI2253
aI2252
aI2254
aI2256
asI1869
(lp391
I2171
aI2170
aI2172
aI2253
aI2252
aI2254
aI2255
aI2167
aI2166
aI2168
aI2169
asI1870
(lp392
I2166
aI2165
aI2167
aI2168
aI2169
aI2170
aI2163
aI2162
aI2164
asI1871
(lp393
I2162
aI2161
aI2163
aI2164
aI2165
aI2319
aI2318
aI2160
aI2239
asI1872
(lp394
I2318
aI2317
aI2319
aI2160
aI2239
aI2161
aI2316
aI2315
asI1873
(lp395
I2395
aI2394
aI2316
aI2315
aI2317
aI2393
aI2392
asI1874
(lp396
I2393
aI2392
aI2394
aI2471
aI2470
aI2472
aI2391
asI1896
(lp397
I1613
aI1612
aI1614
aI1696
aI1695
aI1697
aI1779
aI1778
aI1780
asI1897
(lp398
I1614
aI1613
aI1696
aI1695
aI1697
aI1779
aI1778
aI1780
aI1861
aI1612
asI1898
(lp399
I1614
aI1613
aI1696
aI1695
aI1697
aI1779
aI1778
aI1780
aI1861
asI1899
(lp400
I1614
aI1613
aI1696
aI1695
aI1697
aI1779
aI1778
aI1780
aI1861
asI1900
(lp401
I1613
aI1612
aI1614
aI1696
aI1695
aI1697
aI1779
aI1778
aI1780
aI1861
asI1901
(lp402
I1613
aI1612
aI1614
aI1697
aI1696
aI1780
aI1779
aI1695
aI1778
asI1902
(lp403
I1613
aI1612
aI1614
aI1697
aI1696
asI1903
(lp404
I1614
aI1613
aI1697
aI1612
aI1696
asI1904
(lp405
I1614
aI1613
asI1905
(lp406
sI1906
(lp407
sI1907
(lp408
sI1908
(lp409
sI1909
(lp410
I1753
asI1910
(lp411
I1910
aI1909
aI1831
aI1753
asI1916
(lp412
I2298
aI2297
aI2296
aI2299
aI2221
aI2220
aI2222
aI2143
asI1917
(lp413
I2296
aI2295
aI2297
aI2298
aI2299
aI2221
aI2220
asI1918
(lp414
I2296
aI2295
aI2297
aI2298
aI2299
asI1919
(lp415
I2296
aI2295
aI2297
asI1920
(lp416
I2296
aI2295
aI2297
aI2298
aI2299
aI2220
aI2219
aI2221
asI1921
(lp417
I2295
aI2296
aI2297
aI2298
aI2299
aI2220
aI2219
asI1922
(lp418
I2295
aI2296
aI2297
aI2298
asI1923
(lp419
I2295
aI2296
aI2297
asI1924
(lp420
I2295
aI2296
asI1925
(lp421
I2295
aI2296
asI1926
(lp422
I2295
aI2296
asI1927
(lp423
I2295
aI2296
asI1928
(lp424
I2295
aI2296
aI2297
asI1929
(lp425
I2295
aI2296
aI2297
aI2298
asI1930
(lp426
I2295
aI2296
aI2217
aI2216
aI2218
aI2219
aI2220
aI2298
aI2297
asI1931
(lp427
I2295
aI2296
aI2217
aI2216
aI2218
aI2219
aI2220
aI2141
aI2140
aI2142
aI2143
aI2221
asI1932
(lp428
I2295
aI2296
aI2297
aI2218
aI2217
aI2219
aI2220
aI2141
aI2140
aI2142
aI2143
aI2064
aI2063
aI2065
aI1986
aI1985
aI1987
aI2144
aI2066
aI2216
asI1933
(lp429
I2297
aI2296
aI2298
aI2219
aI2218
aI2220
aI2221
aI2142
aI2141
aI2143
aI2064
aI2063
aI2065
aI1986
aI1985
aI1987
aI1908
aI1907
aI1909
aI1910
aI1831
aI1830
aI1752
aI1988
aI2217
aI2140
asI1934
(lp430
I2221
aI2220
aI2142
aI2141
aI2143
aI2064
aI2063
aI2065
aI2066
aI1987
aI1986
aI1988
aI1909
aI1908
aI1910
aI1831
aI1830
aI1753
aI1675
aI1597
aI1752
aI1674
aI1985
aI1907
asI1935
(lp431
I2065
aI2064
aI2066
aI1987
aI1986
aI1988
aI1909
aI1908
aI1910
aI1831
aI1830
aI1753
aI1675
aI1597
asI1936
(lp432
I1831
aI1753
aI1752
aI1675
aI1674
aI1597
aI1605
aI1604
aI1606
aI1607
aI1608
aI1609
aI1610
aI1691
aI1690
aI1692
aI1693
aI1694
aI1695
aI1776
aI1775
aI1777
aI1778
aI1779
aI1780
aI1861
aI1614
aI1613
aI1697
aI1696
asI1938
(lp433
I1614
aI1697
aI1696
aI1779
aI1778
aI1780
aI1861
aI1860
aI1942
aI2024
aI2106
aI2514
aI2677
aI2840
aI2842
aI2923
aI3004
aI3003
aI3005
aI3086
aI3085
aI3167
aI3166
aI3168
aI3249
aI3248
aI3330
aI3329
aI3331
aI3412
aI3411
aI3493
aI3492
aI3494
aI2839
aI2921
aI3002
aI3084
aI3247
aI1695
aI1777
aI1859
aI1941
aI2023
aI2022
aI2105
aI2104
aI2187
aI2186
aI2268
aI2267
aI2269
aI2350
aI2349
aI2432
aI2431
aI2513
aI2512
aI2595
aI2594
aI2676
aI2758
aI2757
asI1939
(lp434
I2514
aI2595
aI2677
aI2758
aI2840
aI2839
aI2921
aI3003
aI3002
aI3084
aI3083
aI3085
aI3166
aI3165
aI3247
aI3246
aI3248
aI3249
aI3250
aI3331
aI3330
aI3417
aI3418
aI3419
aI3420
aI3421
aI3502
aI3501
aI3494
aI3496
aI3497
aI3498
aI3499
aI3500
aI2842
aI2923
aI3004
aI3005
aI3086
aI3167
aI3168
aI3329
aI3412
aI3411
aI3493
aI3492
asI1940
(lp435
I3248
aI3247
aI3329
aI3328
aI3330
aI3331
aI3412
aI3496
aI3497
aI3498
aI3579
aI3578
aI3580
aI3581
aI3582
aI3502
aI3249
aI3250
aI3417
aI3418
aI3419
aI3420
aI3421
aI3501
asI1941
(lp436
I3582
aI3581
aI3502
aI2799
aI2720
aI2641
aI2640
aI2642
aI2563
aI2562
aI2484
aI2483
aI2485
aI2561
asI1942
(lp437
I2799
aI2640
aI2719
aI2641
aI2562
aI2561
aI2563
aI2484
aI2483
aI2485
aI2486
aI2487
aI2488
aI2489
aI2490
aI2491
aI2412
aI2411
aI2413
aI2414
aI2415
aI2407
aI2406
aI2408
aI2409
aI2410
aI2720
aI2642
asI1949
(lp438
I2167
aI2166
aI2168
aI2169
aI2170
aI2171
aI2163
aI2162
aI2164
aI2165
asI1950
(lp439
I2163
aI2162
aI2164
aI2165
aI2166
aI2160
aI2239
aI2161
asI1951
(lp440
I2319
aI2318
aI2160
aI2239
aI2161
aI2162
aI2316
aI2315
aI2317
aI2238
asI1952
(lp441
I2316
aI2315
aI2317
aI2318
aI2394
aI2393
aI2395
aI2314
asI1953
(lp442
I2393
aI2392
aI2394
aI2395
aI2315
aI2391
asI1954
(lp443
I2471
aI2470
aI2392
aI2391
aI2469
aI2390
asI1955
(lp444
I2470
aI2469
aI2468
asI1974
(lp445
I1697
aI1696
aI1779
aI1778
aI1780
aI1861
aI1860
aI1942
aI2024
aI2106
aI2105
aI2187
asI1975
(lp446
I1697
aI1779
aI1780
aI1861
aI1860
aI1942
aI2024
aI2106
aI2105
aI2187
aI2269
aI1778
asI1976
(lp447
I1780
aI1779
aI1861
aI1942
aI2024
aI2106
aI2105
aI2187
aI2269
aI2268
aI2350
aI1860
asI1977
(lp448
I1780
aI1861
aI1942
aI2024
aI2106
aI2105
aI2187
aI2269
aI2268
aI2350
aI2432
aI2431
asI1978
(lp449
I1861
aI1942
aI2024
aI2106
aI2105
aI2187
aI2269
aI2268
aI2350
aI2432
aI2431
asI1979
(lp450
I1861
aI1942
aI2024
aI2106
aI2105
aI2187
aI2269
aI2350
aI2432
aI2268
aI2431
asI1980
(lp451
I1780
aI1861
aI1942
aI2024
aI2106
aI2105
aI2187
aI2269
aI2350
aI2432
asI1981
(lp452
I1780
aI1779
aI1861
aI1942
aI2024
aI2106
aI2105
aI2187
aI2269
aI2350
asI1982
(lp453
I1697
aI1780
aI1779
aI1861
aI1860
aI1942
aI2024
aI2106
aI2187
aI2269
aI2350
aI2105
asI1983
(lp454
I1697
aI1696
aI1779
aI1778
aI1780
aI1861
aI1860
aI1942
aI2024
aI2106
aI2187
asI1984
(lp455
I1614
aI1697
aI1696
aI1779
aI1778
aI1780
aI1861
aI1860
aI2106
aI1942
aI2024
asI1985
(lp456
I1614
aI1613
aI1697
aI1696
aI1779
aI1778
aI1780
aI1861
aI1860
asI1986
(lp457
I1613
aI1612
aI1614
aI1697
aI1780
aI1779
aI1696
aI1778
asI1987
(lp458
I1614
aI1697
aI1613
aI1612
asI1988
(lp459
sI1994
(lp460
I2066
aI2065
aI1988
aI1987
aI1910
aI1909
aI1831
aI1753
asI1995
(lp461
I2144
aI2143
aI2065
aI2066
aI1988
aI1987
aI1909
aI1910
aI1831
asI1996
(lp462
I2222
aI2221
aI2143
aI2142
aI2144
aI2066
aI2065
aI1987
aI1988
aI1909
asI1997
(lp463
I2299
aI2221
aI2220
aI2222
aI2143
aI2142
aI2144
aI2065
aI2066
aI1987
asI1998
(lp464
I2298
aI2297
aI2299
aI2220
aI2219
aI2221
aI2222
aI2143
aI2142
aI2144
aI2065
asI1999
(lp465
I2297
aI2296
aI2298
aI2299
aI2220
aI2219
aI2221
aI2222
aI2143
aI2142
asI2000
(lp466
I2221
aI2220
aI2222
aI2143
aI2142
aI2144
aI2065
aI2064
aI2066
aI1987
aI1986
aI1988
asI2001
(lp467
I2299
aI2298
aI2220
aI2219
aI2221
aI2222
aI2143
aI2142
aI2144
aI2065
aI2064
aI2066
aI1987
aI1986
asI2002
(lp468
I2298
aI2297
aI2299
aI2220
aI2219
aI2221
aI2222
aI2143
aI2142
aI2144
aI2064
aI2065
asI2005
(lp469
I2297
aI2296
aI2298
aI2219
aI2218
aI2220
aI2221
aI2142
aI2141
aI2143
asI2006
(lp470
I2297
aI2296
aI2298
aI2219
aI2218
aI2220
aI2221
aI2142
aI2141
aI2143
aI2144
asI2007
(lp471
I2297
aI2296
aI2298
aI2219
aI2218
aI2220
aI2221
aI2142
aI2141
aI2143
aI2144
aI2065
aI2064
asI2008
(lp472
I2297
aI2296
aI2298
aI2219
aI2218
aI2220
aI2221
aI2142
aI2141
aI2143
aI2064
aI2063
aI2065
aI2066
aI1986
aI2144
asI2009
(lp473
I2298
aI2297
aI2219
aI2218
aI2220
aI2221
aI2142
aI2141
aI2143
aI2064
aI2063
aI2065
aI1986
aI1985
aI1987
aI1988
aI1908
aI2066
asI2014
(lp474
I1753
aI1752
aI1675
aI1674
aI1597
aI1605
aI1604
aI1606
aI1607
aI1608
aI1609
aI1610
aI1611
aI1692
aI1691
aI1693
aI1694
aI1695
aI1696
aI1697
aI1779
aI1778
aI1780
aI1614
asI2015
(lp475
I1613
aI1612
aI1614
aI1695
aI1694
aI1696
aI1777
aI1776
aI1778
aI1859
aI1858
aI1860
aI1941
aI1940
aI1942
aI2023
aI2022
aI2024
aI2105
aI2104
aI2106
aI2187
aI2186
aI2268
aI2267
aI2269
aI2350
aI2349
aI2432
aI2431
aI2514
aI2513
aI1605
aI1604
aI1606
aI1607
aI1608
aI1609
aI1610
aI1611
aI1692
aI1691
aI1693
aI1697
aI1779
aI1780
asI2016
(lp476
I1614
aI1613
aI1697
aI1696
aI1780
aI1779
aI2106
aI2269
aI2432
aI2514
aI2595
aI2677
aI2676
aI2758
aI2840
aI2839
aI2921
aI3003
aI3002
aI3084
aI3083
aI3085
aI3166
aI3165
aI3247
aI3246
aI3248
aI3328
aI3004
aI1612
aI1695
aI1694
aI1777
aI1776
aI1778
aI1859
aI1858
aI1860
aI1941
aI1940
aI1942
aI2023
aI2022
aI2024
aI2105
aI2104
aI2187
aI2186
aI2268
aI2267
aI2350
aI2349
aI2431
aI2513
asI2017
(lp477
I2106
aI2269
aI2432
aI2514
aI2513
aI2595
aI2677
aI2676
aI2758
aI2840
aI2839
aI2921
aI2923
aI3004
aI3003
aI3005
aI3086
aI3085
aI3087
aI3168
aI3167
aI3169
aI3250
aI3249
aI3497
aI3496
aI3498
aI3579
aI3578
aI3580
aI3329
aI3328
aI3330
aI3411
aI3410
aI3412
aI3494
aI3493
aI3577
aI3002
aI3084
aI3083
aI3166
aI3165
aI3247
aI3246
aI3248
asI2018
(lp478
I2840
aI2839
aI2921
aI3003
aI3002
aI3004
aI3085
aI3084
aI3086
aI3167
aI3166
aI3248
aI3247
aI3249
aI3330
aI3329
aI3331
aI3412
aI3411
aI3493
aI3492
aI3494
aI3496
aI3497
aI3498
aI3499
aI3420
aI3419
aI3421
aI3581
aI3580
aI3582
aI3502
aI2923
aI3005
aI3087
aI3168
aI3169
aI3250
aI3579
aI3578
asI2019
(lp479
I3494
aI3496
aI3497
aI3498
aI3499
aI3500
aI3501
aI3502
aI3420
aI3419
aI3421
asI2020
(lp480
I2720
aI2799
aI2721
aI2642
aI2641
aI2643
aI2564
aI2563
aI2565
aI2486
aI2485
aI2487
aI2408
aI2407
aI2640
aI2719
aI2562
aI2484
aI2406
asI2021
(lp481
I2799
aI2720
aI2641
aI2640
aI2562
aI2561
aI2563
aI2484
aI2483
aI2485
aI2486
aI2487
aI2488
aI2489
aI2490
aI2491
aI2492
aI2493
aI2494
aI2495
aI2497
aI2409
aI2408
aI2410
aI2411
aI2412
aI2413
aI2414
aI2415
aI2416
aI2417
aI2721
aI2642
aI2643
aI2564
aI2565
aI2407
asI2022
(lp482
I2486
aI2485
aI2407
aI2406
aI2408
aI2409
aI2410
aI2411
aI2412
aI2413
aI2414
aI2415
aI2416
aI2497
aI2498
aI2499
aI2580
aI2579
aI2581
aI2582
aI2500
aI2487
aI2488
aI2489
aI2490
aI2491
aI2492
aI2493
aI2494
aI2495
asI2023
(lp483
I2416
aI2415
aI2497
aI2498
aI2499
aI2500
aI2581
aI2580
aI2582
aI2583
aI2579
asI2024
(lp484
I2582
aI2581
aI2501
aI2500
aI2583
asI2031
(lp485
I2316
aI2315
aI2317
aI2318
aI2239
aI2238
aI2394
aI2393
aI2314
asI2032
(lp486
I2394
aI2393
aI2315
aI2314
aI2392
aI2391
asI2033
(lp487
I2392
aI2391
aI2393
aI2390
asI2034
(lp488
I2470
aI2469
aI2391
aI2390
aI2468
aI2388
aI2389
asI2035
(lp489
I2469
aI2468
aI2388
asI2036
(lp490
I2468
aI2467
aI2387
aI2388
asI2037
(lp491
I2467
aI2387
aI2307
asI2053
(lp492
I2024
aI2106
aI2187
aI2269
aI2268
aI2350
aI2432
aI2431
aI2514
aI2513
aI2595
aI2594
aI2676
aI2675
aI2677
aI2757
aI2105
asI2054
(lp493
I2106
aI2187
aI2269
aI2350
aI2432
aI2431
aI2514
aI2513
aI2595
aI2594
aI2676
aI2675
aI2677
aI2758
aI2757
aI2839
aI2838
aI2919
aI2268
asI2055
(lp494
I2269
aI2350
aI2432
aI2431
aI2514
aI2513
aI2595
aI2594
aI2676
aI2675
aI2677
aI2758
aI2757
aI2839
aI2838
aI2920
aI2919
aI2921
aI3001
asI2056
(lp495
I2350
aI2432
aI2514
aI2513
aI2595
aI2594
aI2676
aI2675
aI2677
aI2758
aI2757
aI2839
aI2838
aI2920
aI2919
aI2921
aI3002
aI3001
aI3083
aI3082
aI2431
asI2057
(lp496
I2432
aI2514
aI2513
aI2595
aI2594
aI2677
aI2676
aI2758
aI2757
aI2839
aI2838
aI2840
aI2921
aI2920
aI3002
aI3001
aI3083
aI3082
aI3164
aI3163
aI2675
aI2919
asI2058
(lp497
I2432
aI2514
aI2513
aI2595
aI2594
aI2677
aI2676
aI2758
aI2757
aI2839
aI2838
aI2840
aI2921
aI2920
aI3002
aI3001
aI3083
aI3082
aI3084
aI3164
aI3163
asI2059
(lp498
I2432
aI2514
aI2513
aI2595
aI2594
aI2677
aI2676
aI2758
aI2757
aI2839
aI2838
aI2840
aI2921
aI2920
aI3002
aI3001
aI3083
aI3082
aI3084
aI3164
asI2060
(lp499
I2432
aI2514
aI2513
aI2595
aI2594
aI2677
aI2676
aI2758
aI2757
aI2839
aI2838
aI2840
aI2921
aI2920
aI3002
aI3001
aI3083
aI3082
aI3084
aI3164
asI2061
(lp500
I2350
aI2432
aI2514
aI2513
aI2595
aI2594
aI2677
aI2676
aI2758
aI2757
aI2839
aI2838
aI2840
aI2921
aI2920
aI3002
aI3001
aI3083
aI3082
asI2062
(lp501
I2269
aI2350
aI2432
aI2514
aI2513
aI2595
aI2594
aI2677
aI2676
aI2758
aI2757
aI2839
aI2838
aI2840
aI2921
aI2920
aI3002
aI3001
asI2063
(lp502
I2106
aI2187
aI2269
aI2350
aI2432
aI2514
aI2513
aI2595
aI2594
aI2677
aI2676
aI2758
aI2757
aI2839
aI2838
aI2840
aI2921
aI2920
asI2064
(lp503
I2106
aI2024
aI2187
aI2269
aI2350
aI2432
aI2431
aI2514
aI2513
aI2595
aI2594
aI2676
aI2677
aI2758
aI2757
aI2839
aI2838
asI2065
(lp504
I1861
aI2024
aI2106
aI2187
aI2269
aI2350
aI2432
aI2513
aI2514
aI2595
aI2594
aI2676
aI2431
asI2066
(lp505
I1780
aI1779
aI1861
aI1942
aI2024
aI2106
aI2187
aI2269
aI2350
aI2432
aI2513
asI2072
(lp506
sI2073
(lp507
I1675
asI2074
(lp508
I1753
asI2075
(lp509
I1910
aI1909
aI1831
aI1753
aI1675
asI2076
(lp510
I1988
aI1987
aI1909
aI1910
aI1831
aI1753
aI1675
asI2077
(lp511
I2066
aI2065
aI1987
aI1988
aI1910
aI1909
aI1831
aI1753
asI2078
(lp512
I2144
aI2143
aI2065
aI2066
aI1988
aI1987
aI1910
aI1909
aI1831
asI2079
(lp513
I2222
aI2221
aI2143
aI2142
aI2144
aI2065
aI2064
aI2066
aI1987
aI1986
aI1988
aI1909
aI1908
aI1910
asI2080
(lp514
I1988
aI1987
aI1910
aI1909
aI1831
aI1753
aI1675
asI2081
(lp515
I2066
aI2065
aI1987
aI1986
aI1988
aI1909
aI1908
aI1910
aI1831
aI1830
aI1753
aI1675
asI2082
(lp516
I2065
aI2064
aI2066
aI1987
aI1986
aI1988
aI1909
aI1908
aI1910
aI1831
aI1830
aI1753
aI1752
asI2083
(lp517
I2144
aI2064
aI2065
aI2066
aI1987
aI1986
aI1988
aI1909
aI1908
aI1910
aI1831
aI1830
aI1753
aI1752
asI2084
(lp518
I2144
aI2143
aI2065
aI2064
aI2066
aI1987
aI1986
aI1988
aI1909
aI1908
aI1910
aI1831
aI1830
aI1753
aI1752
asI2085
(lp519
I2144
aI2143
aI2065
aI2064
aI2066
aI1987
aI1986
aI1988
aI1909
aI1908
aI1910
aI1831
aI1830
aI1753
aI1752
asI2088
(lp520
I2066
aI2065
aI1986
aI1987
aI1988
aI1909
aI1908
aI1910
aI1831
aI1830
aI1753
aI1675
aI1597
aI1752
aI1674
asI2089
(lp521
I1987
aI1986
aI1988
aI1908
aI1909
aI1910
aI1831
aI1830
aI1753
aI1440
aI1675
aI1597
asI2090
(lp522
I1909
aI1908
aI1910
aI1831
aI1830
aI1753
aI1752
asI2091
(lp523
I1831
aI1753
aI1752
aI1675
aI1674
aI1603
aI1604
aI1605
asI2097
(lp524
I3329
aI3328
aI3330
aI3411
aI3410
aI3412
aI3494
aI3493
aI3496
aI3497
aI3578
aI3577
aI3579
aI3580
aI3581
aI3582
aI3502
aI3331
aI3417
aI3418
aI3419
aI3420
aI3421
aI3501
asI2098
(lp525
I3581
aI3580
aI3582
aI3502
aI2799
aI2640
aI2719
aI2641
aI2562
aI2561
asI2099
(lp526
I2799
aI2720
aI2641
aI2640
aI2642
aI2643
aI2564
aI2563
aI2565
aI2566
aI2487
aI2486
aI2488
aI2489
aI2410
aI2409
aI2411
aI2412
aI2562
aI2484
aI2483
aI2485
aI2408
aI2719
aI2561
asI2100
(lp527
I2799
aI2640
aI2719
aI2641
aI2642
aI2563
aI2562
aI2564
aI2485
aI2484
aI2486
aI2407
aI2406
aI2408
aI2409
aI2410
aI2411
aI2412
aI2413
aI2494
aI2493
aI2495
aI2497
aI2498
aI2499
aI2414
aI2415
aI2720
aI2643
aI2565
aI2566
aI2487
aI2488
aI2489
asI2101
(lp528
I2409
aI2408
aI2410
aI2411
aI2412
aI2413
aI2414
aI2415
aI2416
aI2417
aI2497
aI2498
aI2499
aI2580
aI2579
aI2581
aI2582
aI2663
aI2662
aI2500
aI2494
aI2493
aI2495
asI2102
(lp529
I2498
aI2497
aI2499
aI2500
aI2581
aI2580
aI2582
aI2583
aI2663
aI2579
aI2662
asI2103
(lp530
I2583
aI2582
aI2501
aI2663
asI2104
(lp531
I2501
aI2500
aI2582
aI2581
aI2583
aI2337
aI2419
aI2418
aI2420
asI2105
(lp532
I2337
aI2336
aI2419
aI2418
aI2420
aI2500
aI2173
aI2172
aI2254
aI2253
aI2255
aI2256
asI2106
(lp533
I2173
aI2172
aI2254
aI2253
aI2255
aI2256
aI2336
aI2088
aI2169
aI2168
aI2170
aI2171
asI2114
(lp534
I2389
aI2388
aI2390
asI2115
(lp535
sI2116
(lp536
I2388
aI2387
aI2308
aI2307
asI2117
(lp537
I2387
aI2307
aI2308
aI2228
asI2118
(lp538
I2308
aI2307
aI2229
aI2228
asI2133
(lp539
I2595
aI2594
aI2676
aI2675
aI2677
aI2514
aI2757
aI2758
aI2839
aI2838
aI2920
aI2919
aI2921
aI3002
aI3001
aI3083
aI3082
aI3084
aI3165
aI3164
aI3246
aI3245
aI3327
aI3326
aI3328
aI3408
aI3163
asI2134
(lp540
I2758
aI2757
aI2839
aI2838
aI2919
aI2920
aI2921
aI3002
aI3001
aI3083
aI3082
aI3084
aI3165
aI3164
aI3246
aI3245
aI3247
aI3328
aI3327
aI3409
aI3408
aI3410
aI3490
aI3326
asI2135
(lp541
I2920
aI2919
aI2921
aI3001
aI3002
aI3083
aI3082
aI3084
aI3165
aI3164
aI3246
aI3245
aI3247
aI3328
aI3327
aI3409
aI3408
aI3410
aI3491
aI3490
aI3492
aI3572
asI2136
(lp542
I3002
aI3001
aI3083
aI3082
aI3084
aI3165
aI3164
aI3246
aI3245
aI3247
aI3328
aI3327
aI3329
aI3410
aI3409
aI3491
aI3490
aI3492
aI3573
aI3572
aI3408
asI2137
(lp543
I3164
aI3163
aI3083
aI3165
aI3246
aI3245
aI3247
aI3328
aI3327
aI3329
aI3410
aI3409
aI3491
aI3490
aI3492
aI3573
aI3572
aI3574
aI3084
asI2138
(lp544
I3164
aI3165
aI3246
aI3245
aI3247
aI3328
aI3327
aI3329
aI3410
aI3409
aI3411
aI3492
aI3491
aI3573
aI3572
aI3574
aI3490
asI2139
(lp545
I3164
aI3165
aI3246
aI3245
aI3247
aI3328
aI3327
aI3329
aI3410
aI3409
aI3411
aI3492
aI3491
aI3573
aI3572
aI3574
asI2140
(lp546
I3084
aI3083
aI3164
aI3165
aI3246
aI3245
aI3247
aI3328
aI3327
aI3329
aI3410
aI3409
aI3411
aI3492
aI3491
aI3573
aI3572
aI3574
asI2141
(lp547
I3083
aI3082
aI3002
aI3084
aI3165
aI3164
aI3166
aI3247
aI3246
aI3328
aI3327
aI3329
aI3410
aI3409
aI3491
aI3490
aI3492
aI3573
aI3572
aI3574
aI3245
aI3411
asI2142
(lp548
I3002
aI3001
aI2921
aI3003
aI3084
aI3083
aI3165
aI3164
aI3166
aI3247
aI3246
aI3328
aI3327
aI3329
aI3410
aI3409
aI3491
aI3490
aI3492
aI3573
aI3572
aI3082
asI2143
(lp549
I2840
aI2839
aI2921
aI2920
aI3002
aI3001
aI3003
aI3084
aI3083
aI3165
aI3164
aI3166
aI3247
aI3246
aI3328
aI3327
aI3329
aI3410
aI3409
aI3491
aI3490
aI3492
asI2144
(lp550
I2677
aI2676
aI2758
aI2757
aI2839
aI2838
aI2840
aI2921
aI2920
aI3002
aI3001
aI3003
aI3084
aI3083
aI3165
aI3164
aI3246
aI3245
aI3247
aI3328
aI3327
aI3409
aI3408
aI3410
aI3166
aI3329
asI2150
(lp551
I1697
aI1614
aI1696
aI1779
aI1778
aI1780
aI1861
aI1860
aI1942
aI2024
aI2106
aI2269
aI2187
aI2350
asI2151
(lp552
I1614
aI1613
aI1697
aI1696
aI1779
aI1778
aI1780
aI1861
aI2106
aI1860
aI1942
aI2024
asI2152
(lp553
I1613
aI1612
aI1614
aI1697
aI1696
aI1780
aI1861
aI1779
aI1778
asI2153
(lp554
I1614
aI1697
aI1613
aI1612
aI1696
asI2154
(lp555
I1614
asI2155
(lp556
sI2156
(lp557
I1675
asI2157
(lp558
I1753
aI1675
asI2158
(lp559
I1910
aI1831
aI1753
asI2159
(lp560
I1909
aI1908
aI1910
aI1988
aI1831
aI1753
aI1675
aI1597
asI2160
(lp561
sI2161
(lp562
I1675
asI2162
(lp563
I1753
aI1675
asI2163
(lp564
I1753
asI2164
(lp565
I1753
asI2165
(lp566
I1753
asI2166
(lp567
I1753
aI1675
asI2167
(lp568
I1675
aI1674
asI2168
(lp569
I1597
aI1609
aI1608
aI1610
aI1611
aI1612
aI1613
aI1614
asI2169
(lp570
I1440
aI1609
aI1608
aI1610
aI1611
aI1612
aI1693
aI1692
aI1694
aI1695
aI1696
aI1697
aI1778
aI1777
aI1779
aI1780
aI1861
aI1613
aI1614
asI2170
(lp571
I1612
aI1611
aI1613
aI1694
aI1693
aI1695
aI1696
aI1777
aI1776
aI1778
aI1859
aI1858
aI1860
aI1941
aI1940
aI1942
aI2024
aI2023
aI2106
aI2105
aI2187
aI2269
aI1609
aI1608
aI1610
aI1692
aI1697
aI1779
aI1780
aI1861
asI2171
(lp572
I1697
aI1779
aI1778
aI1780
aI1861
aI1860
aI1942
aI1941
aI2024
aI2023
aI2106
aI2105
aI2187
aI2186
aI2269
aI2268
aI2350
aI2349
aI2432
aI2431
aI2514
aI2513
aI2595
aI2594
aI2677
aI2676
aI2758
aI2757
aI1612
aI1611
aI1613
aI1694
aI1693
aI1695
aI1696
aI1777
aI1776
aI1859
aI1858
aI1940
asI2172
(lp573
I1697
aI1780
aI1779
aI2269
aI2432
aI2514
aI2595
aI2677
aI2676
aI2758
aI2840
aI2839
aI2921
aI3003
aI3002
aI3084
aI3083
aI3085
aI3166
aI3165
aI3247
aI3246
aI3248
aI3328
aI2920
aI1778
aI1861
aI1860
aI1942
aI1941
aI2024
aI2023
aI2106
aI2105
aI2187
aI2186
aI2268
aI2350
aI2349
aI2431
aI2513
aI2594
aI2757
asI2173
(lp574
I2269
aI2432
aI2514
aI2595
aI2677
aI2758
aI2840
aI2842
aI2923
aI3004
aI3003
aI3005
aI3086
aI3085
aI3087
aI3168
aI3167
aI3249
aI3248
aI3250
aI3331
aI3330
aI3412
aI3494
aI3493
aI3575
aI3329
aI3328
aI3411
aI3410
aI3492
aI3574
aI2676
aI2839
aI2921
aI3002
aI3084
aI3083
aI3166
aI3165
aI3247
aI3246
asI2174
(lp575
I2595
aI2677
aI2676
aI2758
aI2840
aI2839
aI2921
aI3003
aI3002
aI3084
aI3083
aI3085
aI3166
aI3165
aI3246
aI3247
aI3248
aI3249
aI3250
aI3331
aI3330
aI3417
aI3418
aI3499
aI3498
aI3500
aI3501
aI3502
aI3584
aI3583
aI3577
aI3578
aI3579
aI3580
aI3581
aI3582
aI2842
aI2923
aI3004
aI3005
aI3086
aI3087
aI3168
aI3167
aI3412
aI3494
aI3493
aI3575
asI2175
(lp576
I3247
aI3246
aI3248
aI3329
aI3328
aI3330
aI3411
aI3410
aI3412
aI3494
aI3493
aI3575
aI3577
aI3578
aI3579
aI3500
aI3499
aI3501
aI3502
aI3584
aI3249
aI3250
aI3331
aI3417
aI3418
aI3498
aI3583
asI2176
(lp577
I3578
aI3577
aI3579
aI3580
aI3581
aI3582
aI3502
aI3500
aI3499
aI3501
asI2177
(lp578
I2720
aI2799
aI2721
aI2642
aI2641
aI2563
aI2562
aI2564
aI2485
aI2484
aI2486
aI2407
aI2406
aI2640
aI2719
aI2561
asI2178
(lp579
I2799
aI2640
aI2719
aI2641
aI2562
aI2561
aI2563
aI2564
aI2485
aI2484
aI2486
aI2487
aI2488
aI2489
aI2490
aI2491
aI2492
aI2493
aI2414
aI2413
aI2415
aI2408
aI2407
aI2409
aI2410
aI2411
aI2412
aI2720
aI2721
aI2642
aI2406
asI2179
(lp580
I2563
aI2562
aI2484
aI2483
aI2485
aI2486
aI2487
aI2488
aI2409
aI2408
aI2410
aI2411
aI2412
aI2413
aI2414
aI2415
aI2495
aI2497
aI2498
aI2579
aI2578
aI2580
aI2581
aI2582
aI2416
aI2499
aI2564
aI2489
aI2490
aI2491
aI2492
aI2493
asI2180
(lp581
I2413
aI2412
aI2414
aI2415
aI2495
aI2497
aI2498
aI2499
aI2500
aI2581
aI2580
aI2582
aI2663
aI2662
aI2664
aI2744
aI2579
aI2578
asI2181
(lp582
I2500
aI2499
aI2581
aI2580
aI2582
aI2663
aI2662
aI2664
aI2744
asI2182
(lp583
I2663
aI2501
aI2583
aI2582
aI2664
asI2183
(lp584
I2501
aI2583
aI2582
aI2663
aI2337
aI2419
aI2418
aI2420
aI2500
asI2184
(lp585
I2337
aI2419
aI2418
aI2420
aI2501
aI2500
aI2173
aI2172
aI2254
aI2253
aI2255
aI2256
aI2336
asI2185
(lp586
I2173
aI2172
aI2254
aI2253
aI2255
aI2256
aI2337
aI2336
aI2089
aI2088
aI2170
aI2169
aI2171
asI2186
(lp587
I2088
aI2169
aI2168
aI2170
aI2171
aI2172
aI2085
aI2084
aI2089
asI2187
(lp588
I2084
aI2083
aI2085
aI2161
aI2160
aI2162
aI2163
asI2195
(lp589
I2388
aI2308
asI2196
(lp590
I2388
aI2308
aI2229
aI2228
asI2197
(lp591
I2308
aI2228
aI2229
aI2150
asI2198
(lp592
I2229
aI2228
aI2150
aI2072
asI2199
(lp593
I2150
aI2072
asI2200
(lp594
I2072
asI2213
(lp595
I3246
aI3245
aI3327
aI3326
aI3328
aI3408
aI3409
aI3410
aI3491
aI3490
aI3492
aI3493
aI3574
aI3573
aI3575
aI3656
aI3655
aI3657
aI3572
aI3654
asI2214
(lp596
I3409
aI3408
aI3410
aI3490
aI3491
aI3492
aI3573
aI3572
aI3574
aI3575
aI3657
aI3656
aI3658
aI3659
aI3739
aI3738
aI3493
aI3655
asI2215
(lp597
I3491
aI3490
aI3492
aI3572
aI3573
aI3574
aI3575
aI3657
aI3656
aI3658
aI3659
aI3660
aI3661
aI3740
aI3739
aI3741
asI2216
(lp598
I3573
aI3572
aI3574
aI3575
aI3657
aI3656
aI3658
aI3659
aI3660
aI3661
aI3662
asI2217
(lp599
I3574
aI3573
aI3575
aI3656
aI3655
aI3657
aI3658
aI3659
aI3660
aI3661
aI3662
asI2218
(lp600
I3574
aI3575
aI3656
aI3655
aI3657
aI3658
aI3659
aI3660
aI3661
aI3662
aI3663
asI2219
(lp601
I3574
aI3575
aI3656
aI3655
aI3657
aI3658
aI3659
aI3660
aI3661
aI3662
aI3663
asI2220
(lp602
I3574
aI3575
aI3657
aI3656
aI3658
aI3659
aI3660
aI3661
aI3662
aI3655
asI2221
(lp603
I3574
aI3573
aI3575
aI3577
aI3658
aI3657
aI3659
aI3660
aI3661
aI3662
aI3656
asI2222
(lp604
I3573
aI3572
aI3492
aI3493
aI3574
aI3575
aI3577
aI3658
aI3657
aI3659
aI3660
aI3661
asI2228
(lp605
I2677
aI2676
aI2758
aI2757
aI2839
aI2838
aI2840
aI2921
aI2920
aI3002
aI3001
aI3003
aI3084
aI3083
aI3165
aI3164
aI3166
aI3247
aI3246
aI3328
aI3327
aI3409
aI3408
aI3410
aI3491
aI3490
aI3329
asI2229
(lp606
I2432
aI2514
aI2513
aI2595
aI2677
aI2676
aI2758
aI2757
aI2840
aI2839
aI2921
aI2920
aI3002
aI3001
aI3003
aI3084
aI3083
aI3165
aI3164
aI3246
aI3245
aI3247
aI3328
aI3327
aI3166
asI2230
(lp607
I2269
aI2350
aI2432
aI2514
aI2513
aI2595
aI2594
aI2677
aI2676
aI2758
aI2757
aI2839
aI2838
aI2840
aI2921
aI2920
aI3002
aI3001
aI3003
aI3084
aI3083
aI3165
aI3164
asI2231
(lp608
I2106
aI2187
aI2269
aI2350
aI2432
aI2514
aI2513
aI2595
aI2594
aI2677
aI2676
aI2758
aI2757
aI2840
aI2839
aI2921
aI2920
aI3002
aI3001
aI2838
asI2232
(lp609
I1780
aI1861
aI1779
aI2024
aI2106
aI2187
aI2269
aI2350
aI2432
aI2514
aI2513
aI2595
aI2677
aI2676
aI2758
aI2757
aI2594
asI2233
(lp610
I1697
aI1779
aI1778
aI1780
aI1861
aI1860
aI1942
aI2024
aI2106
aI2187
aI2269
aI2432
aI2514
aI2513
aI2350
asI2234
(lp611
I1614
aI1613
aI1697
aI1696
aI1779
aI1778
aI1780
aI1861
aI1860
aI1942
aI2106
aI2269
aI2024
aI2187
asI2235
(lp612
I1613
aI1612
aI1614
aI1696
aI1695
aI1697
aI1779
aI1778
aI1780
aI1861
aI1860
aI1942
asI2236
(lp613
I1613
aI1612
aI1614
aI1697
aI1696
aI1780
aI1695
aI1779
aI1778
aI1861
asI2237
(lp614
I1614
aI1697
aI1613
aI1612
aI1696
asI2238
(lp615
I1614
asI2239
(lp616
I1597
asI2242
(lp617
I1612
aI1611
aI1613
aI1614
aI1695
aI1694
aI1696
aI1697
aI1778
aI1777
aI1779
aI1780
aI1861
aI1860
asI2243
(lp618
I1612
aI1611
aI1613
aI1614
aI1695
aI1694
aI1696
aI1697
aI1778
aI1777
aI1779
aI1780
aI1861
aI1860
asI2244
(lp619
I1612
aI1611
aI1613
aI1614
aI1695
aI1694
aI1696
aI1697
aI1778
aI1777
aI1779
aI1780
aI1861
aI1860
aI1942
asI2245
(lp620
I1612
aI1611
aI1613
aI1614
aI1695
aI1694
aI1696
aI1777
aI1776
aI1778
aI1779
aI1860
aI1859
aI1861
aI1942
aI1941
aI2024
aI1697
aI1780
asI2246
(lp621
I1613
aI1612
aI1614
aI1695
aI1694
aI1696
aI1697
aI1778
aI1777
aI1779
aI1860
aI1859
aI1861
aI1942
aI1941
aI2024
aI2023
aI2106
aI2105
aI2187
aI2269
aI1611
aI1776
asI2251
(lp622
I2432
aI2514
aI2595
aI2677
aI2676
aI2758
aI2840
aI2839
aI2921
aI2923
aI3004
aI3003
aI3005
aI3086
aI3085
aI3087
aI3168
aI3167
aI3169
aI3250
aI3249
aI3331
aI3330
aI3412
aI3494
aI3496
aI3577
aI3578
aI3493
aI3492
aI3575
aI3574
aI3084
aI3166
aI3248
aI3247
aI3329
aI3328
aI3411
aI3410
aI3491
asI2252
(lp623
I2840
aI2839
aI2921
aI2920
aI3003
aI3002
aI3084
aI3083
aI3085
aI3166
aI3165
aI3247
aI3246
aI3248
aI3328
aI3329
aI3330
aI3331
aI3417
aI3418
aI3499
aI3498
aI3500
aI3501
aI3502
aI3584
aI3583
aI3579
aI3578
aI3580
aI3581
aI3582
aI2923
aI3004
aI3005
aI3086
aI3087
aI3168
aI3167
aI3169
aI3250
aI3249
aI3412
aI3494
aI3496
aI3577
asI2253
(lp624
I3329
aI3328
aI3330
aI3411
aI3410
aI3412
aI3493
aI3492
aI3494
aI3575
aI3574
aI3577
aI3578
aI3499
aI3498
aI3500
aI3501
aI3502
aI3584
aI3331
aI3417
aI3418
aI3583
asI2254
(lp625
I3577
aI3578
aI3579
aI3580
aI3581
aI3582
aI3583
aI3584
aI3499
aI3498
aI3500
aI3501
aI3502
asI2255
(lp626
I3584
aI2799
aI2720
aI2641
aI2640
aI2642
aI2563
aI2562
aI2484
aI2483
aI2719
aI2561
asI2256
(lp627
I2799
aI2720
aI2641
aI2640
aI2642
aI2643
aI2564
aI2563
aI2565
aI2566
aI2487
aI2486
aI2488
aI2489
aI2490
aI2411
aI2410
aI2412
aI2485
aI2484
aI2408
aI2407
aI2409
aI2562
aI2483
asI2257
(lp628
I2799
aI2640
aI2719
aI2641
aI2562
aI2561
aI2563
aI2564
aI2485
aI2484
aI2486
aI2407
aI2406
aI2408
aI2409
aI2410
aI2411
aI2492
aI2491
aI2493
aI2494
aI2495
aI2497
aI2498
aI2499
aI2413
aI2412
aI2414
aI2415
aI2720
aI2642
aI2643
aI2565
aI2566
aI2487
aI2488
aI2489
aI2490
asI2258
(lp629
I2408
aI2407
aI2409
aI2410
aI2411
aI2412
aI2413
aI2414
aI2415
aI2416
aI2497
aI2498
aI2499
aI2580
aI2579
aI2581
aI2662
aI2661
aI2663
aI2664
aI2582
aI2492
aI2491
aI2493
aI2494
aI2495
asI2259
(lp630
I2416
aI2415
aI2497
aI2498
aI2499
aI2580
aI2579
aI2581
aI2582
aI2663
aI2662
aI2664
aI2745
aI2744
aI2661
asI2260
(lp631
I2663
aI2662
aI2664
aI2582
aI2744
aI2665
aI2745
asI2261
(lp632
I2744
aI2664
aI2501
aI2583
aI2582
aI2663
asI2262
(lp633
I2501
aI2583
aI2582
aI2664
aI2663
aI2337
aI2419
aI2418
aI2420
aI2500
asI2263
(lp634
I2337
aI2419
aI2418
aI2420
aI2501
aI2500
aI2173
aI2172
aI2254
aI2253
aI2255
aI2256
aI2336
aI2174
asI2264
(lp635
I2173
aI2172
aI2254
aI2253
aI2255
aI2256
aI2337
aI2336
aI2089
aI2088
aI2170
aI2169
aI2171
asI2265
(lp636
I2089
aI2088
aI2170
aI2169
aI2171
aI2172
aI2085
aI2084
asI2266
(lp637
I2085
aI2084
aI2088
aI2161
aI2160
aI2162
aI2083
aI2082
asI2267
(lp638
I2161
aI2160
aI2162
aI2163
aI2084
aI2083
aI2238
aI2237
aI2239
aI2082
asI2268
(lp639
I2238
aI2237
aI2239
aI2160
aI2317
aI2316
aI2315
asI2269
(lp640
I2315
aI2314
aI2316
aI2317
aI2313
asI2276
(lp641
I2229
aI2228
aI2308
aI2150
aI2151
aI2230
aI2309
asI2277
(lp642
I2150
aI2229
aI2151
aI2072
asI2278
(lp643
I2072
aI2150
aI1994
aI2151
asI2279
(lp644
I2072
asI2280
(lp645
I1759
aI1680
asI2281
(lp646
I1759
aI1680
aI1603
aI1604
aI1605
asI2282
(lp647
I1603
aI1604
aI1609
aI1608
aI1610
aI1611
aI1612
aI1605
asI2295
(lp648
I3740
aI3739
aI3741
aI3661
aI3662
aI3663
aI3584
aI3583
aI3660
asI2296
(lp649
I3662
aI3661
aI3663
aI3584
aI3583
asI2297
(lp650
I3662
aI3663
aI3664
aI3584
aI3583
asI2298
(lp651
I3663
aI3662
aI3664
aI3584
asI2299
(lp652
I3663
aI3662
aI3664
aI3584
asI2307
(lp653
I3492
aI3491
aI3573
aI3572
aI3574
aI3493
aI3494
aI3575
aI3577
aI3578
aI3659
aI3658
aI3660
aI3661
aI3662
aI3663
aI3579
aI3580
asI2308
(lp654
I3409
aI3408
aI3410
aI3491
aI3490
aI3328
aI3411
aI3492
aI3493
aI3494
aI3575
aI3574
aI3577
aI3658
aI3657
aI3659
aI3660
aI3661
aI3578
asI2309
(lp655
I3246
aI3245
aI3247
aI3328
aI3327
aI3165
aI3329
aI3330
aI3411
aI3410
aI3412
aI3493
aI3492
aI3494
aI3575
aI3574
aI3656
aI3657
aI3658
aI3659
aI3409
aI3408
aI3491
aI3577
asI2310
(lp656
I3003
aI3002
aI3084
aI3083
aI3165
aI3164
aI3166
aI3247
aI3246
aI3248
aI3329
aI3328
aI3330
aI3411
aI3410
aI3492
aI3491
aI3493
aI3574
aI3573
aI3575
aI3656
aI3655
aI3245
aI3327
aI3412
aI3494
asI2311
(lp657
I2758
aI2840
aI2839
aI2921
aI2920
aI3002
aI3001
aI3003
aI3084
aI3083
aI3085
aI3166
aI3165
aI3247
aI3246
aI3248
aI3329
aI3328
aI3410
aI3409
aI3411
aI3491
aI3492
aI3493
aI3574
aI3573
aI3164
aI3330
asI2312
(lp658
I2514
aI2595
aI2677
aI2676
aI2758
aI2757
aI2840
aI2839
aI2921
aI2920
aI3003
aI3002
aI3084
aI3083
aI3165
aI3164
aI3166
aI3247
aI3246
aI3328
aI3327
aI3329
aI3410
aI3409
aI3491
aI3490
aI3085
aI3248
aI3411
asI2313
(lp659
I2432
aI2514
aI2513
aI2595
aI2677
aI2676
aI2758
aI2757
aI2840
aI2839
aI2921
aI2920
aI3002
aI3001
aI3003
aI3084
aI3083
aI3165
aI3164
aI3246
aI3245
aI3247
aI3328
aI3327
aI3166
asI2314
(lp660
I2106
aI2269
aI2350
aI2432
aI2514
aI2513
aI2595
aI2594
aI2677
aI2676
aI2758
aI2757
aI2840
aI2839
aI2921
aI2920
aI3001
aI3002
aI3003
aI3084
aI3083
aI3165
aI3164
asI2315
(lp661
I2106
aI2187
aI2269
aI2350
aI2432
aI2514
aI2513
aI2595
aI2594
aI2677
aI2676
aI2758
aI2757
aI2840
aI2839
aI2921
aI2920
aI3001
asI2316
(lp662
I1780
aI1779
aI1861
aI1942
aI2024
aI2106
aI2187
aI2269
aI2350
aI2432
aI2514
aI2513
aI2595
aI2677
aI2676
aI2758
aI2757
aI2594
asI2317
(lp663
I1697
aI1779
aI1778
aI1780
aI1861
aI1860
aI1942
aI2024
aI2106
aI2105
aI2187
aI2269
aI2432
aI2514
aI2513
aI2595
aI2350
asI2318
(lp664
I1614
aI1697
aI1696
aI1779
aI1778
aI1780
aI1861
aI1860
aI1942
aI2024
aI2106
aI2269
aI2105
aI2187
asI2319
(lp665
I1614
aI1613
aI1696
aI1695
aI1697
aI1778
aI1777
aI1779
aI1780
aI1861
aI1860
aI1942
aI2024
aI2106
asI2320
(lp666
I2106
aI2269
aI2432
aI2514
aI2513
aI2595
aI2677
aI2676
aI2758
aI2757
aI2840
aI2839
aI2921
aI2920
aI3002
aI3001
aI3003
aI3083
aI3084
aI3164
asI2321
(lp667
I2106
aI2269
aI2350
aI2432
aI2514
aI2513
aI2595
aI2677
aI2676
aI2758
aI2757
aI2840
aI2839
aI2921
aI2920
aI3002
aI3001
aI3003
aI3083
asI2322
(lp668
I2106
aI2269
aI2350
aI2432
aI2514
aI2513
aI2595
aI2677
aI2676
aI2758
aI2757
aI2840
aI2839
aI2921
aI2920
aI3002
aI3001
aI3003
asI2323
(lp669
I2106
aI2269
aI2350
aI2432
aI2514
aI2513
aI2595
aI2677
aI2676
aI2758
aI2757
aI2840
aI2839
aI2921
aI2920
aI3002
aI3001
aI3003
aI3084
aI3083
asI2324
(lp670
I2106
aI2269
aI2432
aI2514
aI2513
aI2595
aI2677
aI2676
aI2758
aI2757
aI2840
aI2839
aI2921
aI2920
aI3003
aI3002
aI3084
aI3083
aI3165
aI3164
aI2350
aI3001
asI2325
(lp671
I2269
aI2432
aI2514
aI2595
aI2677
aI2676
aI2758
aI2840
aI2839
aI2921
aI2920
aI3003
aI3002
aI3084
aI3083
aI3085
aI3166
aI3165
aI3247
aI3246
aI2106
aI2513
aI2757
aI3164
asI2326
(lp672
I2432
aI2514
aI2595
aI2677
aI2758
aI2840
aI2839
aI2921
aI3003
aI3002
aI3004
aI3085
aI3084
aI3166
aI3165
aI3167
aI3248
aI3247
aI3329
aI3328
aI3410
aI3409
aI3327
aI2269
aI2676
aI2920
aI3083
aI3246
asI2327
(lp673
I2432
aI2514
aI2595
aI2677
aI2758
aI2840
aI2921
aI2923
aI3004
aI3003
aI3085
aI3084
aI3086
aI3167
aI3166
aI3248
aI3247
aI3249
aI3330
aI3329
aI3411
aI3410
aI3412
aI3493
aI3492
aI3494
aI3574
aI3491
aI3573
aI2839
aI3002
aI3165
aI3328
aI3409
asI2328
(lp674
I2514
aI2595
aI2677
aI2676
aI2758
aI2839
aI2840
aI2921
aI3003
aI3002
aI3004
aI3085
aI3084
aI3086
aI3167
aI3166
aI3168
aI3249
aI3248
aI3250
aI3331
aI3330
aI3412
aI3494
aI3496
aI3577
aI3578
aI3658
aI3575
aI3574
aI2923
aI3247
aI3329
aI3411
aI3410
aI3493
aI3492
asI2329
(lp675
I2840
aI2839
aI2921
aI2920
aI3003
aI3002
aI3084
aI3083
aI3165
aI3164
aI3166
aI3247
aI3246
aI3248
aI3249
aI3250
aI3331
aI3330
aI3497
aI3496
aI3498
aI3499
aI3580
aI3579
aI3581
aI3582
aI3578
aI3658
aI3004
aI3085
aI3086
aI3167
aI3168
aI3412
aI3494
aI3577
asI2330
(lp676
I3166
aI3165
aI3247
aI3246
aI3248
aI3329
aI3328
aI3410
aI3409
aI3411
aI3492
aI3491
aI3493
aI3494
aI3496
aI3497
aI3498
aI3499
aI3500
aI3501
aI3502
aI3583
aI3582
aI3584
aI3249
aI3250
aI3331
aI3330
aI3580
aI3579
aI3581
asI2331
(lp677
I3493
aI3492
aI3494
aI3575
aI3574
aI3577
aI3578
aI3579
aI3580
aI3501
aI3500
aI3502
aI3496
aI3497
aI3498
aI3499
asI2332
(lp678
I3579
aI3578
aI3580
aI3581
aI3582
aI3583
aI3584
aI3501
aI3500
aI3502
asI2333
(lp679
I3584
aI2799
aI2720
aI2641
aI2640
aI2562
aI2561
aI2563
aI2719
asI2334
(lp680
I2799
aI2720
aI2721
aI2642
aI2641
aI2643
aI2564
aI2563
aI2565
aI2566
aI2487
aI2486
aI2488
aI2409
aI2408
aI2410
aI2484
aI2483
aI2485
aI2407
aI2640
aI2562
aI2561
asI2335
(lp681
I2799
aI2640
aI2719
aI2641
aI2562
aI2561
aI2563
aI2484
aI2483
aI2485
aI2486
aI2487
aI2488
aI2489
aI2490
aI2491
aI2492
aI2493
aI2494
aI2495
aI2497
aI2411
aI2410
aI2412
aI2413
aI2414
aI2415
aI2720
aI2721
aI2642
aI2643
aI2564
aI2565
aI2566
aI2409
aI2408
asI2336
(lp682
I2485
aI2484
aI2486
aI2487
aI2408
aI2407
aI2409
aI2410
aI2411
aI2412
aI2413
aI2414
aI2495
aI2494
aI2497
aI2498
aI2579
aI2578
aI2580
aI2581
aI2662
aI2661
aI2663
aI2499
aI2488
aI2489
aI2490
aI2491
aI2492
aI2493
asI2337
(lp683
I2413
aI2412
aI2414
aI2415
aI2495
aI2497
aI2498
aI2499
aI2580
aI2579
aI2581
aI2662
aI2661
aI2663
aI2744
aI2743
aI2745
aI2746
aI2826
aI2664
aI2494
aI2578
asI2341
(lp684
I2501
aI2583
aI2582
aI2664
aI2663
aI2337
aI2419
aI2418
aI2420
aI2500
asI2342
(lp685
I2337
aI2419
aI2418
aI2420
aI2501
aI2500
aI2173
aI2172
aI2174
aI2255
aI2254
aI2256
aI2336
asI2343
(lp686
I2173
aI2172
aI2174
aI2255
aI2254
aI2256
aI2337
aI2336
aI2089
aI2088
aI2170
aI2169
aI2171
asI2344
(lp687
I2089
aI2088
aI2170
aI2169
aI2171
aI2172
aI2085
aI2084
asI2345
(lp688
I2085
aI2084
aI2088
aI2082
aI2081
aI2083
aI2161
asI2346
(lp689
I2161
aI2160
aI2162
aI2083
aI2082
aI2084
aI2239
aI2238
aI2081
asI2347
(lp690
I2238
aI2237
aI2239
aI2160
aI2316
aI2315
aI2317
aI2236
asI2348
(lp691
I2316
aI2315
aI2317
aI2237
aI2314
aI2313
asI2349
(lp692
I2314
aI2313
aI2315
aI2312
aI2311
asI2350
(lp693
I2392
aI2391
aI2313
aI2312
aI2390
aI2311
asI2357
(lp694
I2072
aI1994
asI2358
(lp695
I1994
aI1838
aI1759
asI2359
(lp696
I1759
aI1680
aI1603
aI1838
asI2360
(lp697
I1759
aI1680
aI1603
aI1604
aI1605
aI1606
asI2361
(lp698
I1603
aI1604
aI1609
aI1608
aI1610
aI1611
aI1612
aI1613
aI1614
aI1605
aI1606
asI2362
(lp699
I1611
aI1610
aI1612
aI1613
aI1614
aI1695
aI1694
aI1696
aI1697
aI1778
aI1777
aI1779
aI1860
aI1859
aI1861
aI1780
aI1609
aI1608
asI2363
(lp700
I1613
aI1612
aI1614
aI1696
aI1695
aI1697
aI1778
aI1779
aI1780
aI1861
aI1860
aI1942
aI1941
aI2024
aI2023
aI2106
aI2105
aI2187
aI2186
aI2269
aI2268
aI1694
aI1777
aI1859
asI2364
(lp701
I1779
aI1778
aI1780
aI1861
aI1860
aI1942
aI2024
aI2106
aI2105
aI2187
aI2269
aI2268
aI2350
aI2349
aI2432
aI2431
aI2513
aI2512
aI2514
aI2595
aI2594
aI2676
aI2675
aI2757
aI2756
aI1941
aI2023
aI2186
asI2385
(lp702
I3584
asI2386
(lp703
I3584
aI3583
aI3663
asI2387
(lp704
I3662
aI3661
aI3663
aI3583
aI3582
aI3584
asI2388
(lp705
I3660
aI3659
aI3661
aI3582
aI3581
aI3583
aI3584
aI3662
asI2389
(lp706
I3657
aI3656
aI3658
aI3659
aI3580
aI3579
aI3581
aI3582
aI3583
aI3584
aI3660
aI3661
asI2390
(lp707
I3575
aI3574
aI3656
aI3655
aI3577
aI3578
aI3579
aI3580
aI3581
aI3582
aI3583
aI3584
aI3657
aI3658
aI3659
asI2391
(lp708
I3492
aI3491
aI3493
aI3574
aI3573
aI3494
aI3575
aI3577
aI3578
aI3579
aI3580
aI3661
aI3660
aI3662
aI3663
aI3583
aI3581
aI3582
asI2392
(lp709
I3329
aI3328
aI3410
aI3409
aI3491
aI3490
aI3411
aI3412
aI3493
aI3492
aI3494
aI3575
aI3577
aI3578
aI3659
aI3658
aI3660
aI3661
aI3579
aI3580
asI2393
(lp710
I3246
aI3245
aI3247
aI3328
aI3327
aI3165
aI3166
aI3248
aI3329
aI3330
aI3411
aI3410
aI3412
aI3493
aI3492
aI3494
aI3575
aI3574
aI3657
aI3656
aI3658
aI3659
aI3409
aI3577
aI3578
asI2394
(lp711
I3002
aI3001
aI3003
aI3084
aI3083
aI3165
aI3164
aI3085
aI3166
aI3247
aI3246
aI3248
aI3329
aI3328
aI3330
aI3411
aI3410
aI3412
aI3493
aI3492
aI3574
aI3573
aI3575
aI3657
aI3656
aI3494
asI2395
(lp712
I2758
aI2840
aI2839
aI2921
aI2920
aI3001
aI3003
aI3002
aI3084
aI3083
aI3085
aI3166
aI3165
aI3247
aI3246
aI3248
aI3329
aI3328
aI3330
aI3411
aI3410
aI3492
aI3491
aI3493
aI3574
aI3573
aI3575
aI3412
asI2396
(lp713
I2595
aI2677
aI2676
aI2758
aI2757
aI2840
aI2839
aI2921
aI2920
aI3003
aI3002
aI3084
aI3083
aI3085
aI3166
aI3165
aI3247
aI3246
aI3248
aI3329
aI3328
aI3410
aI3409
aI3411
aI3492
aI3491
aI3330
asI2397
(lp714
I2432
aI2514
aI2513
aI2595
aI2677
aI2676
aI2758
aI2840
aI2839
aI2921
aI2920
aI3003
aI3002
aI3084
aI3083
aI3085
aI3166
aI3165
aI3247
aI3246
aI3328
aI3327
aI3329
aI3410
aI3409
aI3248
asI2398
(lp715
I2269
aI2432
aI2514
aI2513
aI2595
aI2677
aI2676
aI2758
aI2840
aI2839
aI2921
aI2920
aI3003
aI3002
aI3084
aI3083
aI3165
aI3164
aI3166
aI3246
aI3247
aI3328
aI3327
aI3085
asI2399
(lp716
I2269
aI2432
aI2514
aI2513
aI2595
aI2677
aI2676
aI2758
aI2757
aI2840
aI2839
aI2921
aI2920
aI3002
aI3001
aI3003
aI3084
aI3083
aI3164
aI3165
aI3166
aI3246
asI2400
(lp717
I3084
aI3083
aI3164
aI3085
aI3166
aI3165
aI3167
aI3248
aI3247
aI3249
aI3330
aI3329
aI3331
aI3412
aI3411
aI3494
aI3493
aI3575
aI3577
aI3658
aI3657
aI3246
aI3578
asI2401
(lp718
I3083
aI3003
aI3084
aI3085
aI3166
aI3165
aI3167
aI3248
aI3247
aI3249
aI3330
aI3329
aI3331
aI3412
aI3411
aI3494
aI3493
aI3575
aI3577
aI3658
aI3657
asI2402
(lp719
I3084
aI3083
aI3085
aI3166
aI3165
aI3167
aI3248
aI3247
aI3249
aI3330
aI3329
aI3331
aI3412
aI3411
aI3494
aI3493
aI3496
aI3577
aI3578
aI3003
aI3658
aI3575
aI3657
asI2403
(lp720
I3084
aI3083
aI3003
aI3085
aI3166
aI3165
aI3167
aI3248
aI3247
aI3249
aI3330
aI3329
aI3331
aI3412
aI3494
aI3496
aI3577
aI3578
aI3659
aI3658
aI3411
aI3493
asI2404
(lp721
I3165
aI3164
aI3084
aI3166
aI3247
aI3246
aI3248
aI3249
aI3330
aI3329
aI3331
aI3412
aI3494
aI3496
aI3497
aI3578
aI3577
aI3579
aI3580
aI3660
aI3659
aI3085
aI3167
aI3658
asI2405
(lp722
I3166
aI3165
aI3247
aI3246
aI3248
aI3329
aI3328
aI3330
aI3331
aI3412
aI3411
aI3496
aI3497
aI3498
aI3499
aI3580
aI3579
aI3581
aI3582
aI3661
aI3660
aI3249
aI3494
aI3578
aI3577
asI2406
(lp723
I3328
aI3327
aI3329
aI3410
aI3409
aI3247
aI3411
aI3412
aI3494
aI3496
aI3497
aI3498
aI3499
aI3500
aI3501
aI3502
aI3584
aI3583
aI3582
aI3248
aI3330
aI3331
aI3580
aI3579
aI3581
asI2407
(lp724
I3411
aI3410
aI3492
aI3491
aI3493
aI3574
aI3573
aI3575
aI3496
aI3497
aI3498
aI3499
aI3500
aI3501
aI3502
aI3584
aI3412
aI3494
aI3583
asI2408
(lp725
I3575
aI3574
aI3577
aI3578
aI3658
aI3579
aI3580
aI3501
aI3500
aI3502
aI3496
aI3497
aI3498
aI3499
asI2409
(lp726
I3579
aI3578
aI3580
aI3581
aI3582
aI3658
aI3583
aI3501
aI3500
aI3502
asI2410
(lp727
I3583
aI3582
aI3584
asI2411
(lp728
I2720
aI2799
aI2641
aI2640
aI2642
aI2563
aI2562
aI2484
aI2483
aI2719
aI2561
asI2412
(lp729
I2799
aI2720
aI2721
aI2642
aI2641
aI2643
aI2564
aI2563
aI2565
aI2566
aI2487
aI2486
aI2488
aI2409
aI2408
aI2410
aI2485
aI2484
aI2407
aI2640
aI2562
aI2483
asI2413
(lp730
I2799
aI2640
aI2719
aI2641
aI2562
aI2561
aI2563
aI2484
aI2483
aI2485
aI2486
aI2487
aI2488
aI2489
aI2490
aI2491
aI2492
aI2493
aI2494
aI2495
aI2411
aI2410
aI2412
aI2413
aI2414
aI2415
aI2416
aI2720
aI2721
aI2642
aI2643
aI2564
aI2565
aI2566
aI2409
aI2408
asI2414
(lp731
I2484
aI2483
aI2485
aI2486
aI2487
aI2408
aI2407
aI2409
aI2410
aI2563
aI2411
aI2412
aI2413
aI2494
aI2493
aI2495
aI2497
aI2578
aI2577
aI2579
aI2580
aI2581
aI2662
aI2661
aI2498
aI2499
aI2488
aI2489
aI2490
aI2491
aI2492
asI2415
(lp732
I2411
aI2410
aI2412
aI2413
aI2414
aI2415
aI2495
aI2497
aI2498
aI2499
aI2580
aI2579
aI2581
aI2662
aI2661
aI2663
aI2744
aI2743
aI2745
aI2826
aI2825
aI2494
aI2493
aI2578
aI2577
asI2416
(lp733
I2498
aI2497
aI2499
aI2580
aI2579
aI2581
aI2662
aI2661
aI2663
aI2664
aI2745
aI2744
aI2826
aI2825
aI2827
aI2743
asI2417
(lp734
I2664
aI2663
aI2745
aI2744
aI2746
aI2826
aI2827
aI2825
asI2418
(lp735
I2826
aI2746
aI2665
aI2664
aI2745
asI2419
(lp736
I2665
aI2664
aI2746
aI2745
aI2501
aI2583
aI2582
aI2663
aI2584
asI2420
(lp737
I2501
aI2583
aI2582
aI2664
aI2663
aI2337
aI2420
aI2419
aI2500
aI2257
aI2421
asI2421
(lp738
I2337
aI2419
aI2418
aI2420
aI2501
aI2500
aI2173
aI2172
aI2174
aI2255
aI2254
aI2256
aI2336
aI2257
asI2422
(lp739
I2173
aI2172
aI2174
aI2255
aI2254
aI2256
aI2337
aI2336
aI2089
aI2088
aI2090
aI2171
aI2170
asI2423
(lp740
I2089
aI2088
aI2170
aI2169
aI2171
aI2172
aI2085
aI2084
aI2090
asI2424
(lp741
I2085
aI2084
aI2088
aI2082
aI2081
aI2083
asI2425
(lp742
I2082
aI2081
aI2083
aI2084
aI2161
aI2239
aI2238
aI2160
asI2426
(lp743
I2239
aI2238
aI2160
aI2161
aI2237
aI2236
aI2316
asI2427
(lp744
I2316
aI2315
aI2237
aI2236
aI2238
aI2314
aI2313
asI2428
(lp745
I2314
aI2313
aI2315
aI2312
asI2429
(lp746
I2312
aI2311
aI2313
asI2430
(lp747
I2391
aI2390
aI2311
aI2310
asI2431
(lp748
I2310
aI2309
aI2390
asI2432
(lp749
I2230
aI2229
aI2309
aI2310
asI2438
(lp750
I1838
aI1759
aI1680
aI1603
aI1604
aI1605
asI2439
(lp751
I1680
aI1759
aI1603
aI1604
aI1605
aI1606
aI1607
aI1608
aI1609
aI1610
aI1611
asI2440
(lp752
I1604
aI1603
aI1605
aI1610
aI1609
aI1611
aI1612
aI1613
aI1614
aI1695
aI1694
aI1696
aI1697
aI1606
aI1607
aI1608
asI2441
(lp753
I1611
aI1610
aI1612
aI1613
aI1614
aI1696
aI1695
aI1697
aI1778
aI1777
aI1779
aI1860
aI1859
aI1861
aI1942
aI1941
aI2024
aI2023
aI1780
aI1609
aI1694
asI2442
(lp754
I1696
aI1695
aI1697
aI1778
aI1777
aI1779
aI1780
aI1861
aI1860
aI1942
aI2024
aI2023
aI2106
aI2105
aI2187
aI2186
aI2269
aI2268
aI2350
aI2349
aI2432
aI2431
aI2513
aI2512
aI1859
aI1941
asI2443
(lp755
I1942
aI2024
aI2023
aI2106
aI2105
aI2187
aI2269
aI2268
aI2350
aI2432
aI2431
aI2513
aI2512
aI2514
aI2595
aI2594
aI2676
aI2675
aI2757
aI2756
aI2758
aI2839
aI2838
aI2920
aI2919
aI3001
aI3000
aI2186
aI2349
asI2444
(lp756
I2269
aI2350
aI2432
aI2431
aI2513
aI2512
aI2514
aI2595
aI2594
aI2676
aI2675
aI2757
aI2756
aI2758
aI2839
aI2838
aI2920
aI2919
aI2921
aI3002
aI3001
aI3083
aI3082
aI3164
aI3163
aI3165
aI3246
aI3245
aI3327
aI3326
aI3328
aI3408
aI3407
aI3000
asI2445
(lp757
I2758
aI2757
aI2839
aI2838
aI2920
aI2919
aI3001
aI3000
aI3002
aI3083
aI3082
aI3164
aI3163
aI3165
aI3246
aI3245
aI3327
aI3326
aI3328
aI3409
aI3408
aI3410
aI3491
aI3490
aI3492
aI3573
aI3572
aI3574
aI3654
aI3489
aI3571
aI3653
aI2921
asI2446
(lp758
I3165
aI3164
aI3246
aI3245
aI3327
aI3326
aI3328
aI3409
aI3408
aI3490
aI3489
aI3491
aI3492
aI3573
aI3572
aI3574
aI3575
aI3656
aI3655
aI3657
aI3658
aI3739
aI3738
aI3654
aI3737
aI3410
asI2456
(lp759
I2721
aI2720
aI2722
aI2643
aI2642
aI2644
aI2565
aI2564
aI2566
aI2567
aI2488
aI2487
aI2486
asI2457
(lp760
I2720
aI2799
aI2721
aI2722
aI2643
aI2642
aI2644
aI2565
aI2564
aI2566
aI2567
aI2488
aI2487
aI2489
asI2458
(lp761
I2720
aI2799
aI2721
aI2722
aI2643
aI2642
aI2644
aI2565
aI2564
aI2566
aI2567
aI2488
aI2487
aI2489
asI2459
(lp762
I2720
aI2799
aI2721
aI2722
aI2643
aI2642
aI2644
aI2565
aI2564
aI2566
aI2567
aI2488
aI2487
aI2489
asI2460
(lp763
I2720
aI2799
aI2721
aI2722
aI2643
aI2642
aI2644
aI2565
aI2564
aI2566
aI2567
aI2488
aI2487
aI2489
asI2461
(lp764
I2720
aI2799
aI2721
aI2722
aI2643
aI2642
aI2644
aI2565
aI2564
aI2566
aI2487
aI2486
aI2488
aI2489
aI2567
asI2462
(lp765
I2721
aI2720
aI2722
aI2643
aI2642
aI2644
aI2565
aI2564
aI2486
aI2485
aI2487
aI2488
aI2799
aI2566
asI2463
(lp766
I2720
aI2799
aI2721
aI2642
aI2641
aI2643
aI2564
aI2563
aI2565
aI2485
aI2486
aI2487
aI2722
aI2644
asI2464
(lp767
I2720
aI2799
aI2721
aI2642
aI2641
aI2563
aI2562
aI2564
aI2565
aI2485
aI2643
asI2465
(lp768
I2720
aI2799
aI2641
aI2640
aI2642
aI2563
aI2562
aI2643
aI2721
asI2466
(lp769
I2720
aI2799
aI2641
aI2640
aI2642
aI2722
asI2467
(lp770
I2799
aI2720
asI2468
(lp771
sI2469
(lp772
sI2470
(lp773
I3584
aI3583
asI2471
(lp774
I3662
aI3661
aI3663
aI3583
aI3582
aI3584
asI2472
(lp775
I3660
aI3659
aI3661
aI3582
aI3581
aI3583
aI3584
aI3662
asI2473
(lp776
I3658
aI3657
aI3659
aI3579
aI3578
aI3580
aI3581
aI3582
aI3583
aI3584
aI3660
aI3661
asI2474
(lp777
I3575
aI3657
aI3656
aI3577
aI3578
aI3579
aI3580
aI3581
aI3582
aI3583
aI3584
aI3658
asI2475
(lp778
I3493
aI3492
aI3574
aI3573
aI3575
aI3494
aI3577
aI3578
aI3579
aI3580
aI3581
aI3582
aI3583
aI3584
asI2476
(lp779
I3411
aI3410
aI3492
aI3491
aI3493
aI3494
aI3496
aI3577
aI3578
aI3579
aI3580
aI3581
aI3662
aI3661
aI3583
aI3582
aI3575
aI3574
asI2477
(lp780
I3329
aI3328
aI3410
aI3409
aI3330
aI3411
aI3412
aI3494
aI3493
aI3496
aI3577
aI3578
aI3579
aI3660
aI3659
aI3661
aI3662
aI3492
aI3491
aI3580
aI3581
asI2478
(lp781
I3247
aI3246
aI3328
aI3327
aI3248
aI3329
aI3330
aI3331
aI3412
aI3411
aI3494
aI3493
aI3496
aI3577
aI3578
aI3659
aI3658
aI3660
aI3410
aI3579
asI2479
(lp782
I3165
aI3164
aI3166
aI3246
aI3247
aI3248
aI3249
aI3330
aI3329
aI3331
aI3412
aI3411
aI3494
aI3493
aI3575
aI3577
aI3578
aI3658
aI3659
aI3328
aI3496
asI2480
(lp783
I3659
aI3658
aI3580
aI3579
aI3581
aI3582
aI3502
asI2481
(lp784
I3579
aI3578
aI3580
aI3581
aI3582
aI3502
aI3658
aI3659
asI2482
(lp785
I3659
aI3658
aI3580
aI3579
aI3581
aI3582
aI3502
aI3578
asI2483
(lp786
I3659
aI3658
aI3580
aI3579
aI3581
aI3582
aI3502
asI2484
(lp787
I3660
aI3659
aI3661
aI3582
aI3581
aI3583
aI3580
aI3579
aI3502
asI2485
(lp788
I3661
aI3660
aI3582
aI3581
aI3583
asI2486
(lp789
I3583
aI3582
aI3584
asI2487
(lp790
I3584
aI2799
asI2488
(lp791
I2799
aI2720
aI2641
aI2640
aI2562
aI2561
aI2719
asI2489
(lp792
I2720
aI2799
aI2721
aI2642
aI2641
aI2643
aI2564
aI2563
aI2565
aI2486
aI2485
aI2407
aI2406
aI2562
aI2484
aI2483
aI2640
aI2561
asI2490
(lp793
I2799
aI2720
aI2641
aI2640
aI2642
aI2643
aI2564
aI2563
aI2565
aI2566
aI2567
aI2488
aI2487
aI2489
aI2490
aI2411
aI2410
aI2412
aI2408
aI2407
aI2409
aI2721
aI2486
aI2485
aI2406
asI2491
(lp794
I2799
aI2640
aI2719
aI2641
aI2562
aI2561
aI2563
aI2484
aI2483
aI2485
aI2486
aI2487
aI2488
aI2489
aI2490
aI2491
aI2492
aI2493
aI2494
aI2495
aI2497
aI2413
aI2412
aI2414
aI2415
aI2720
aI2642
aI2643
aI2564
aI2565
aI2566
aI2567
aI2411
aI2410
asI2492
(lp795
I2485
aI2484
aI2486
aI2487
aI2408
aI2407
aI2409
aI2410
aI2411
aI2412
aI2413
aI2494
aI2493
aI2495
aI2497
aI2578
aI2577
aI2579
aI2580
aI2581
aI2662
aI2661
aI2498
aI2499
aI2488
aI2489
aI2490
aI2491
aI2492
asI2493
(lp796
I2411
aI2410
aI2412
aI2413
aI2414
aI2415
aI2416
aI2497
aI2498
aI2579
aI2578
aI2580
aI2581
aI2662
aI2661
aI2663
aI2744
aI2743
aI2745
aI2826
aI2825
aI2494
aI2493
aI2495
aI2577
asI2494
(lp797
I2497
aI2498
aI2499
aI2580
aI2579
aI2581
aI2662
aI2661
aI2663
aI2744
aI2743
aI2745
aI2826
aI2825
aI2827
aI2908
aI2907
aI2578
asI2495
(lp798
I2663
aI2662
aI2744
aI2743
aI2745
aI2826
aI2825
aI2827
aI2908
aI2907
asI2497
(lp799
I2827
aI2826
aI2665
aI2664
aI2746
aI2745
asI2498
(lp800
I2665
aI2664
aI2746
aI2745
aI2826
aI2421
aI2420
aI2501
aI2583
aI2582
aI2584
asI2499
(lp801
I2501
aI2583
aI2582
aI2584
aI2664
aI2257
aI2256
aI2337
aI2420
aI2419
aI2421
asI2500
(lp802
I2337
aI2420
aI2419
aI2421
aI2257
aI2501
aI2173
aI2172
aI2174
aI2255
aI2254
aI2256
asI2501
(lp803
I2173
aI2172
aI2174
aI2255
aI2254
aI2256
aI2257
aI2089
aI2088
aI2090
aI2171
aI2170
asI2506
(lp804
I2237
aI2236
aI2238
aI2316
aI2315
aI2314
aI2235
asI2507
(lp805
I2314
aI2313
aI2315
aI2316
aI2312
asI2508
(lp806
I2313
aI2312
aI2311
asI2509
(lp807
I2312
aI2311
aI2310
asI2510
(lp808
I2311
aI2310
aI2230
asI2511
(lp809
I2310
aI2230
asI2512
(lp810
I2310
aI2230
aI2151
aI2150
aI2231
asI2513
(lp811
I2151
aI2150
aI2230
aI2072
aI2073
asI2514
(lp812
I2072
aI2151
aI1994
aI2073
asI2518
(lp813
I1603
aI1604
aI1605
aI1607
aI1606
aI1608
aI1609
aI1610
aI1611
aI1612
aI1613
asI2519
(lp814
I1610
aI1609
aI1611
aI1612
aI1613
aI1614
aI1695
aI1694
aI1696
aI1697
aI1778
aI1777
aI1779
aI1780
aI1860
aI1607
aI1606
aI1608
asI2520
(lp815
I1612
aI1611
aI1613
aI1614
aI1695
aI1694
aI1696
aI1697
aI1779
aI1778
aI1860
aI1859
aI1861
aI1942
aI1941
aI2024
aI2023
aI2106
aI2105
aI2187
aI2186
aI2268
aI1777
aI1780
asI2521
(lp816
I1697
aI1779
aI1778
aI1780
aI1861
aI1860
aI1942
aI1941
aI2024
aI2023
aI2106
aI2105
aI2187
aI2269
aI2268
aI2350
aI2349
aI2432
aI2431
aI2513
aI2512
aI2514
aI2595
aI2594
aI2676
aI2675
aI2757
aI2756
aI1859
aI2186
asI2522
(lp817
I2106
aI2105
aI2187
aI2269
aI2268
aI2350
aI2432
aI2431
aI2513
aI2512
aI2514
aI2595
aI2594
aI2676
aI2675
aI2757
aI2756
aI2758
aI2839
aI2838
aI2920
aI2919
aI3001
aI3000
aI3002
aI3083
aI3082
aI3164
aI3163
aI3245
aI3244
aI2349
asI2523
(lp818
I2514
aI2513
aI2595
aI2594
aI2676
aI2675
aI2757
aI2756
aI2758
aI2839
aI2838
aI2920
aI2919
aI3001
aI3000
aI3002
aI3083
aI3082
aI3164
aI3163
aI3165
aI3246
aI3245
aI3327
aI3326
aI3328
aI3409
aI3408
aI3410
aI3491
aI3490
aI3572
aI3571
aI3489
aI3244
asI2524
(lp819
I3002
aI3001
aI3083
aI3082
aI3164
aI3163
aI3165
aI3246
aI3245
aI3327
aI3326
aI3408
aI3407
aI3409
aI3410
aI3491
aI3490
aI3492
aI3573
aI3572
aI3574
aI3575
aI3656
aI3655
aI3657
aI3738
aI3737
aI3654
aI3653
aI3328
aI3571
asI2525
(lp820
I3409
aI3408
aI3490
aI3489
aI3491
aI3572
aI3571
aI3573
aI3654
aI3653
aI3655
aI3656
aI3657
aI3658
aI3659
aI3660
aI3661
aI3662
aI3663
aI3739
aI3738
aI3740
aI3741
aI3742
aI3410
aI3492
aI3574
aI3575
aI3737
asI2526
(lp821
I3655
aI3654
aI3656
aI3657
aI3738
aI3737
aI3739
aI3740
aI3741
aI3661
aI3660
aI3662
aI3663
aI3664
aI3584
aI3665
aI3658
aI3659
asI2527
(lp822
I3740
aI3739
aI3741
aI3742
aI3663
aI3662
aI3664
aI3665
aI3661
aI3660
aI3584
asI2528
(lp823
I3665
aI3664
asI2529
(lp824
I2720
aI2799
asI2530
(lp825
I2721
aI2720
aI2722
aI2643
aI2642
aI2564
aI2563
aI2641
aI2799
asI2531
(lp826
I2721
aI2720
aI2722
aI2643
aI2642
aI2644
aI2645
aI2566
aI2565
aI2567
aI2488
aI2487
aI2564
aI2486
aI2568
aI2563
asI2532
(lp827
I2720
aI2799
aI2721
aI2722
aI2643
aI2642
aI2644
aI2645
aI2646
aI2567
aI2566
aI2568
aI2569
aI2490
aI2489
aI2491
aI2492
aI2488
aI2565
aI2487
asI2533
(lp828
I2721
aI2720
aI2642
aI2641
aI2643
aI2723
aI2564
aI2563
aI2565
aI2566
aI2567
aI2568
aI2569
aI2570
aI2571
aI2572
aI2573
aI2494
aI2493
aI2495
aI2492
aI2722
aI2644
aI2645
aI2646
aI2490
aI2489
aI2491
asI2534
(lp829
I2564
aI2563
aI2565
aI2643
aI2645
aI2566
aI2567
aI2568
aI2569
aI2570
aI2571
aI2572
aI2573
aI2574
aI2575
aI2576
aI2577
aI2578
aI2579
aI2497
aI2499
aI2494
aI2493
aI2495
asI2535
(lp830
I2486
aI2485
aI2487
aI2565
aI2567
aI2488
aI2489
aI2490
aI2571
aI2570
aI2572
aI2573
aI2574
aI2575
aI2576
aI2577
aI2657
aI2660
aI2661
aI2580
aI2579
aI2581
aI2566
aI2568
aI2569
aI2578
asI2536
(lp831
I2488
aI2487
aI2489
aI2490
aI2491
aI2492
aI2573
aI2572
aI2574
aI2575
aI2576
aI2657
aI2656
aI2660
aI2661
aI2742
aI2741
aI2662
aI2571
aI2570
aI2577
asI2537
(lp832
I2489
aI2488
aI2490
aI2491
aI2492
aI2573
aI2572
aI2574
aI2575
aI2576
aI2657
aI2656
aI2660
aI2741
aI2740
aI2742
aI2743
aI2661
asI2538
(lp833
I2489
aI2490
aI2491
aI2492
aI2493
aI2574
aI2573
aI2575
aI2576
aI2577
aI2657
aI2660
aI2741
aI2740
aI2742
aI2743
aI2744
aI2572
aI2656
asI2539
(lp834
I2489
aI2490
aI2491
aI2492
aI2493
aI2574
aI2573
aI2575
aI2576
aI2577
aI2657
aI2660
aI2741
aI2740
aI2742
aI2743
aI2744
asI2540
(lp835
I2489
aI2490
aI2491
aI2492
aI2493
aI2574
aI2573
aI2575
aI2576
aI2577
aI2657
aI2660
aI2661
aI2742
aI2741
aI2743
aI2740
asI2541
(lp836
I2489
aI2488
aI2490
aI2491
aI2492
aI2573
aI2572
aI2574
aI2575
aI2576
aI2577
aI2578
aI2660
aI2661
aI2662
aI2743
aI2742
aI2663
aI2493
aI2657
aI2741
asI2542
(lp837
I2488
aI2487
aI2489
aI2490
aI2491
aI2492
aI2573
aI2572
aI2574
aI2575
aI2576
aI2577
aI2578
aI2579
aI2580
aI2500
aI2661
aI2660
aI2581
asI2543
(lp838
I2486
aI2485
aI2487
aI2488
aI2489
aI2490
aI2491
aI2572
aI2571
aI2573
aI2574
aI2575
aI2576
aI2577
aI2578
aI2498
aI2579
aI2580
aI2492
aI2500
asI2544
(lp839
I2564
aI2563
aI2565
aI2485
aI2566
aI2567
aI2568
aI2569
aI2490
aI2489
aI2491
aI2492
aI2493
aI2494
aI2495
aI2576
aI2497
aI2578
aI2577
aI2498
aI2486
aI2487
aI2488
aI2572
aI2571
aI2573
aI2574
aI2575
asI2545
(lp840
I2563
aI2562
aI2642
aI2643
aI2564
aI2565
aI2566
aI2567
aI2568
aI2489
aI2488
aI2490
aI2491
aI2492
aI2493
aI2494
aI2495
aI2569
aI2576
asI2546
(lp841
I2641
aI2640
aI2642
aI2720
aI2722
aI2721
aI2643
aI2644
aI2565
aI2564
aI2566
aI2567
aI2488
aI2487
aI2489
aI2490
aI2491
aI2411
aI2412
aI2413
aI2494
aI2493
aI2414
aI2563
aI2568
aI2492
asI2547
(lp842
I2799
aI2720
aI2721
aI2642
aI2641
aI2643
aI2644
aI2565
aI2564
aI2566
aI2487
aI2486
aI2488
aI2489
aI2409
aI2410
aI2411
aI2567
aI2490
aI2491
asI2548
(lp843
I2720
aI2799
aI2721
aI2642
aI2641
aI2643
aI2564
aI2563
aI2565
aI2486
aI2485
aI2487
aI2488
aI2409
aI2408
aI2489
aI2644
aI2566
asI2549
(lp844
I2720
aI2799
aI2721
aI2642
aI2641
aI2563
aI2562
aI2564
aI2485
aI2484
aI2486
aI2566
aI2643
aI2565
asI2550
(lp845
I2720
aI2799
aI2641
aI2640
aI2642
aI2563
aI2562
aI2564
aI2644
aI2721
asI2551
(lp846
I2799
aI2720
aI2641
aI2640
aI2642
aI2722
asI2552
(lp847
I2799
asI2553
(lp848
sI2554
(lp849
sI2555
(lp850
I3584
aI3583
asI2556
(lp851
I3583
aI3582
aI3662
aI3584
asI2557
(lp852
I3661
aI3660
aI3662
aI3582
aI3581
aI3583
aI3584
asI2558
(lp853
I3660
aI3659
aI3581
aI3580
aI3582
aI3583
aI3661
asI2559
(lp854
I3659
aI3658
aI3580
aI3579
aI3581
aI3582
aI3502
aI3660
aI3583
asI2560
(lp855
I2799
asI2561
(lp856
I2799
aI2640
aI2719
asI2562
(lp857
I2799
aI2720
aI2640
aI2719
asI2563
(lp858
I2799
aI2720
aI2641
aI2640
aI2562
aI2561
asI2564
(lp859
I2720
aI2799
aI2641
aI2640
aI2642
aI2563
aI2562
aI2483
aI2561
asI2565
(lp860
I2720
aI2799
aI2721
aI2642
aI2641
aI2563
aI2562
aI2564
aI2485
aI2484
aI2486
aI2483
aI2640
asI2566
(lp861
I2720
aI2799
aI2721
aI2642
aI2641
aI2643
aI2564
aI2563
aI2565
aI2566
aI2487
aI2486
aI2488
aI2409
aI2408
aI2407
aI2406
aI2562
aI2485
aI2484
asI2567
(lp862
I2799
aI2720
aI2641
aI2640
aI2642
aI2643
aI2564
aI2563
aI2565
aI2566
aI2567
aI2488
aI2487
aI2489
aI2490
aI2411
aI2410
aI2412
aI2409
aI2721
aI2486
aI2408
asI2568
(lp863
I2640
aI2719
aI2641
aI2562
aI2561
aI2799
aI2563
aI2564
aI2565
aI2566
aI2487
aI2486
aI2488
aI2489
aI2490
aI2491
aI2492
aI2493
aI2494
aI2495
aI2413
aI2412
aI2414
aI2415
aI2720
aI2642
aI2643
aI2567
aI2411
aI2410
asI2569
(lp864
I2563
aI2562
aI2484
aI2483
aI2485
aI2486
aI2407
aI2406
aI2408
aI2409
aI2490
aI2489
aI2491
aI2492
aI2493
aI2494
aI2495
aI2577
aI2576
aI2578
aI2579
aI2580
aI2497
aI2498
aI2499
aI2564
aI2565
aI2566
aI2487
aI2488
asI2570
(lp865
I2408
aI2407
aI2409
aI2410
aI2411
aI2412
aI2413
aI2414
aI2495
aI2494
aI2497
aI2578
aI2577
aI2579
aI2580
aI2661
aI2660
aI2662
aI2663
aI2744
aI2743
aI2581
aI2490
aI2489
aI2491
aI2492
aI2493
aI2576
asI2571
(lp866
I2413
aI2412
aI2414
aI2415
aI2495
aI2497
aI2498
aI2499
aI2580
aI2579
aI2581
aI2662
aI2661
aI2663
aI2744
aI2743
aI2745
aI2826
aI2825
aI2827
aI2907
aI2494
aI2578
aI2577
aI2660
asI2572
(lp867
I2498
aI2497
aI2499
aI2580
aI2579
aI2581
aI2662
aI2661
aI2663
aI2744
aI2743
aI2745
aI2826
aI2825
aI2827
aI2908
aI2907
aI2989
aI2988
asI2573
(lp868
I2663
aI2662
aI2744
aI2743
aI2745
aI2826
aI2825
aI2827
aI2908
aI2907
aI2989
aI2988
asI2574
(lp869
I2827
aI2826
aI2908
aI2907
aI2909
aI2989
aI2988
asI2575
(lp870
I2908
aI2828
aI2827
aI2747
aI2909
asI2576
(lp871
I2828
aI2827
aI2908
aI2665
aI2664
aI2746
aI2745
aI2826
aI2584
aI2747
asI2577
(lp872
I2665
aI2664
aI2746
aI2745
aI2827
aI2826
aI2421
aI2420
aI2501
aI2583
aI2582
aI2584
asI2578
(lp873
I2421
aI2420
aI2501
aI2583
aI2582
aI2584
aI2664
aI2257
aI2256
aI2337
aI2419
asI2579
(lp874
I2257
aI2256
aI2337
aI2420
aI2419
aI2173
aI2172
aI2174
aI2255
aI2254
asI2580
(lp875
I2173
aI2172
aI2174
aI2255
aI2254
aI2256
aI2089
aI2088
aI2090
aI2171
aI2170
aI2091
asI2581
(lp876
I2089
aI2088
aI2090
aI2171
aI2170
aI2172
aI2085
asI2582
(lp877
I2085
aI2084
aI2088
aI2082
aI2081
aI2083
asI2583
(lp878
I2082
aI2081
aI2083
aI2084
aI2160
aI2239
aI2080
asI2584
(lp879
I2239
aI2238
aI2160
aI2081
aI2080
aI2237
aI2236
asI2585
(lp880
I2237
aI2236
aI2238
aI2315
aI2314
aI2235
aI2234
asI2586
(lp881
I2315
aI2314
aI2236
aI2235
aI2313
asI2587
(lp882
I2313
aI2312
aI2314
asI2588
(lp883
I2312
aI2311
asI2589
(lp884
I2311
aI2310
aI2231
aI2230
asI2590
(lp885
I2310
aI2230
aI2231
aI2151
asI2591
(lp886
I2231
aI2230
aI2152
aI2151
aI2072
asI2592
(lp887
I2231
aI2230
aI2151
aI2072
aI2073
aI2152
asI2593
(lp888
I2072
aI2073
aI2151
aI1994
aI1916
asI2594
(lp889
I1994
aI1916
aI1838
aI1759
asI2595
(lp890
I1916
aI1838
aI1759
aI1680
aI1681
aI1603
asI2599
(lp891
I1614
aI1613
aI1695
aI1694
aI1696
aI1697
aI1778
aI1777
aI1779
aI1780
aI1860
aI1861
aI1942
aI1941
aI2024
aI2023
aI2106
aI2105
aI2187
aI2186
aI2269
aI2268
aI2350
aI2349
aI2431
aI1776
aI1859
asI2600
(lp892
I1861
aI1860
aI1942
aI2024
aI2023
aI2106
aI2105
aI2187
aI2268
aI2269
aI2350
aI2432
aI2431
aI2513
aI2512
aI2514
aI2595
aI2594
aI2676
aI2675
aI2757
aI2756
aI2758
aI2839
aI2838
aI2920
aI2919
aI3000
aI1941
aI2186
aI2349
asI2601
(lp893
I2269
aI2268
aI2350
aI2432
aI2431
aI2513
aI2512
aI2514
aI2595
aI2594
aI2676
aI2675
aI2757
aI2756
aI2758
aI2839
aI2838
aI2920
aI2919
aI3001
aI3000
aI3002
aI3083
aI3082
aI3164
aI3163
aI3165
aI3246
aI3245
aI3327
aI3326
aI3408
aI3407
asI2602
(lp894
I2758
aI2757
aI2839
aI2838
aI2920
aI2919
aI3001
aI3000
aI3002
aI3083
aI3082
aI3164
aI3163
aI3245
aI3244
aI3246
aI3327
aI3326
aI3328
aI3409
aI3408
aI3410
aI3491
aI3490
aI3492
aI3573
aI3572
aI3574
aI3655
aI3654
aI3489
aI3571
aI3165
aI3407
asI2603
(lp895
I3246
aI3245
aI3327
aI3326
aI3328
aI3409
aI3408
aI3490
aI3489
aI3491
aI3572
aI3571
aI3573
aI3574
aI3655
aI3654
aI3656
aI3657
aI3658
aI3659
aI3660
aI3741
aI3740
aI3738
aI3737
aI3739
aI3410
aI3492
asI2604
(lp896
I3573
aI3572
aI3654
aI3653
aI3655
aI3656
aI3657
aI3738
aI3737
aI3739
aI3740
aI3661
aI3660
aI3662
aI3663
aI3664
aI3584
aI3742
aI3741
aI3665
aI3574
aI3658
aI3659
asI2605
(lp897
I3739
aI3738
aI3740
aI3741
aI3742
aI3663
aI3662
aI3664
aI3665
aI3661
aI3660
aI3584
asI2606
(lp898
I3664
aI3663
aI3665
asI2607
(lp899
I2721
aI2720
aI2641
asI2608
(lp900
I2722
aI2721
aI2643
aI2642
aI2644
aI2565
aI2564
aI2566
aI2487
aI2486
aI2641
aI2563
aI2720
asI2609
(lp901
I2720
aI2799
aI2721
aI2722
aI2643
aI2642
aI2644
aI2645
aI2646
aI2567
aI2566
aI2568
aI2569
aI2570
aI2491
aI2490
aI2492
aI2493
aI2488
aI2487
aI2489
aI2565
aI2564
aI2486
asI2610
(lp902
I2721
aI2720
aI2642
aI2641
aI2643
aI2564
aI2563
aI2565
aI2566
aI2567
aI2568
aI2569
aI2570
aI2571
aI2572
aI2573
aI2574
aI2575
aI2576
aI2577
aI2578
aI2494
aI2493
aI2495
aI2498
aI2722
aI2644
aI2645
aI2646
aI2491
aI2490
aI2492
asI2611
(lp903
I2565
aI2564
aI2566
aI2487
aI2486
aI2488
aI2568
aI2489
aI2490
aI2491
aI2572
aI2571
aI2573
aI2574
aI2575
aI2656
aI2655
aI2657
aI2740
aI2739
aI2741
aI2742
aI2743
aI2824
aI2823
aI2579
aI2578
aI2660
aI2661
aI2744
aI2567
aI2569
aI2570
aI2576
aI2577
asI2612
(lp904
I2489
aI2488
aI2490
aI2491
aI2492
aI2493
aI2494
aI2575
aI2574
aI2576
aI2657
aI2656
aI2740
aI2739
aI2741
aI2822
aI2821
aI2823
aI2824
aI2905
aI2904
aI2906
aI2987
aI2986
aI2988
aI2825
aI2907
aI2572
aI2571
aI2573
aI2655
aI2742
aI2743
asI2613
(lp905
I2493
aI2492
aI2494
aI2495
aI2577
aI2576
aI2578
aI2660
aI2741
aI2740
aI2742
aI2823
aI2822
aI2904
aI2903
aI2905
aI2986
aI2985
aI2987
aI3068
aI3067
aI3069
aI3150
aI3149
aI3151
aI3232
aI3231
aI3070
aI2988
aI2575
aI2574
aI2657
aI2656
aI2739
aI2821
aI2824
aI2906
asI2614
(lp906
I2497
aI2578
aI2577
aI2579
aI2499
aI2660
aI2661
aI2742
aI2741
aI2823
aI2822
aI2824
aI2905
aI2904
aI2986
aI2985
aI2987
aI3068
aI3067
aI3069
aI3150
aI3149
aI3231
aI3230
aI3232
aI3313
aI3312
aI3394
aI3393
aI2576
aI2740
aI2903
aI3151
asI2615
(lp907
I2580
aI2579
aI2661
aI2660
aI2581
aI2742
aI2741
aI2743
aI2824
aI2823
aI2905
aI2904
aI2906
aI2987
aI2986
aI3068
aI3067
aI3069
aI3150
aI3149
aI3231
aI3230
aI3312
aI3311
aI3313
aI3394
aI3393
aI3475
aI3474
aI3476
aI3556
aI3395
aI2822
aI2985
aI3232
asI2616
(lp908
I2662
aI2661
aI2742
aI2743
aI2824
aI2823
aI2825
aI2906
aI2905
aI2987
aI2986
aI3068
aI3067
aI3069
aI3150
aI3149
aI3231
aI3230
aI3312
aI3311
aI3313
aI3394
aI3393
aI3475
aI3474
aI3476
aI3557
aI3556
aI3637
aI2741
aI2904
asI2617
(lp909
I2743
aI2742
aI2744
aI2825
aI2824
aI2906
aI2905
aI2987
aI2986
aI2988
aI3069
aI3068
aI3150
aI3149
aI3231
aI3230
aI3232
aI3313
aI3312
aI3394
aI3393
aI3475
aI3474
aI3476
aI3557
aI3556
aI3638
aI3637
aI2823
aI3067
aI3311
asI2618
(lp910
I2744
aI2743
aI2825
aI2824
aI2906
aI2905
aI2987
aI2986
aI2988
aI3069
aI3068
aI3150
aI3149
aI3231
aI3230
aI3232
aI3313
aI3312
aI3394
aI3393
aI3475
aI3474
aI3476
aI3557
aI3556
aI3638
aI3637
asI2619
(lp911
I2744
aI2743
aI2825
aI2824
aI2906
aI2905
aI2987
aI2986
aI2988
aI3069
aI3068
aI3150
aI3149
aI3231
aI3230
aI3232
aI3313
aI3312
aI3394
aI3393
aI3475
aI3474
aI3476
aI3557
aI3556
aI3637
aI3638
asI2620
(lp912
I2743
aI2744
aI2825
aI2824
aI2906
aI2905
aI2987
aI2986
aI2988
aI3069
aI3068
aI3150
aI3149
aI3231
aI3230
aI3232
aI3313
aI3312
aI3394
aI3393
aI3475
aI3474
aI3476
aI3557
aI3556
aI3637
asI2621
(lp913
I2662
aI2661
aI2743
aI2742
aI2663
aI2824
aI2823
aI2825
aI2906
aI2905
aI2987
aI2986
aI2988
aI3069
aI3068
aI3150
aI3149
aI3231
aI3230
aI3232
aI3313
aI3312
aI3394
aI3393
aI3395
aI3475
aI3476
aI3557
aI3556
aI3477
aI2744
aI3474
asI2622
(lp914
I2661
aI2660
aI2580
aI2581
aI2742
aI2741
aI2743
aI2824
aI2823
aI2905
aI2904
aI2906
aI2987
aI2986
aI2988
aI3069
aI3068
aI3150
aI3149
aI3151
aI3232
aI3231
aI3313
aI3312
aI3314
aI3394
aI3395
aI3475
aI2662
aI2825
aI3230
aI3393
asI2623
(lp915
I2579
aI2578
aI2580
aI2660
aI2661
aI2742
aI2741
aI2743
aI2824
aI2823
aI2905
aI2904
aI2906
aI2987
aI2986
aI2988
aI3069
aI3068
aI3150
aI3149
aI3151
aI3232
aI3231
aI3313
aI3312
aI3314
aI3394
asI2624
(lp916
I2497
aI2578
aI2577
aI2498
aI2579
aI2660
aI2661
aI2742
aI2741
aI2823
aI2822
aI2824
aI2905
aI2904
aI2906
aI2987
aI2986
aI2988
aI3069
aI3068
aI3070
aI3151
aI3150
aI3232
aI3231
aI2743
aI3149
asI2625
(lp917
I2495
aI2494
aI2577
aI2576
aI2578
aI2660
aI2741
aI2740
aI2742
aI2823
aI2822
aI2824
aI2825
aI2906
aI2905
aI2907
aI2987
aI2988
aI2989
aI3070
aI3069
aI2990
aI2497
aI2579
aI2661
aI2904
aI2986
aI3068
asI2626
(lp918
I2412
aI2411
aI2413
aI2494
aI2493
aI2414
aI2492
aI2495
aI2576
aI2575
aI2577
aI2657
aI2660
aI2741
aI2740
aI2742
aI2743
aI2824
aI2823
aI2825
aI2826
aI2907
aI2906
aI2987
aI2578
aI2822
aI2905
asI2627
(lp919
I2410
aI2409
aI2411
aI2490
aI2489
aI2491
aI2492
aI2493
aI2574
aI2573
aI2575
aI2576
aI2577
aI2578
aI2660
aI2661
aI2662
aI2743
aI2742
aI2744
aI2825
aI2824
aI2412
aI2494
aI2495
aI2657
aI2741
aI2740
aI2823
asI2628
(lp920
I2487
aI2486
aI2488
aI2409
aI2408
aI2489
aI2490
aI2491
aI2492
aI2493
aI2574
aI2573
aI2575
aI2576
aI2577
aI2578
aI2579
aI2499
aI2580
aI2661
aI2660
aI2662
aI2582
asI2629
(lp921
I2485
aI2484
aI2486
aI2564
aI2566
aI2565
aI2567
aI2488
aI2487
aI2489
aI2490
aI2491
aI2492
aI2493
aI2494
aI2495
aI2497
aI2577
aI2498
aI2579
aI2578
aI2499
aI2574
aI2573
aI2575
aI2576
asI2630
(lp922
I2563
aI2562
aI2564
aI2642
aI2644
aI2565
aI2566
aI2567
aI2568
aI2489
aI2488
aI2490
aI2491
aI2492
aI2493
aI2494
aI2495
aI2497
aI2487
aI2577
asI2631
(lp923
I2720
aI2799
aI2641
aI2640
aI2642
aI2722
aI2643
aI2644
aI2565
aI2564
aI2566
aI2567
aI2488
aI2487
aI2489
aI2490
aI2491
aI2411
aI2412
aI2413
aI2414
aI2494
aI2563
aI2562
aI2568
aI2492
aI2493
asI2632
(lp924
I2799
aI2720
aI2721
aI2642
aI2641
aI2643
aI2644
aI2565
aI2564
aI2566
aI2487
aI2486
aI2488
aI2409
aI2408
aI2410
aI2411
aI2640
aI2567
aI2489
aI2490
aI2491
asI2633
(lp925
I2720
aI2799
aI2721
aI2642
aI2641
aI2643
aI2564
aI2563
aI2565
aI2486
aI2485
aI2487
aI2488
aI2409
aI2408
aI2489
aI2644
aI2566
asI2634
(lp926
I2720
aI2799
aI2721
aI2642
aI2641
aI2563
aI2562
aI2564
aI2485
aI2484
aI2486
aI2487
aI2643
aI2565
asI2635
(lp927
I2720
aI2799
aI2641
aI2640
aI2642
aI2563
aI2562
aI2564
aI2485
aI2484
aI2565
aI2721
asI2636
(lp928
I2720
aI2799
aI2641
aI2640
aI2642
aI2562
aI2563
asI2637
(lp929
I2799
aI2720
aI2641
aI2640
aI2562
aI2561
aI2642
asI2638
(lp930
I2799
aI2720
aI2640
aI2641
asI2639
(lp931
I2799
aI2720
aI2640
asI2640
(lp932
I2720
aI2799
aI2641
aI2640
aI2642
aI2643
aI2564
aI2563
aI2565
aI2566
aI2567
aI2488
aI2487
aI2489
aI2490
aI2491
aI2412
aI2411
asI2641
(lp933
I2640
aI2719
aI2799
aI2641
aI2642
aI2643
aI2564
aI2563
aI2565
aI2566
aI2567
aI2488
aI2487
aI2489
aI2490
aI2491
aI2412
aI2411
aI2413
aI2720
asI2642
(lp934
I2640
aI2641
aI2642
aI2563
aI2562
aI2564
aI2565
aI2566
aI2567
aI2568
aI2489
aI2488
aI2490
aI2491
aI2492
aI2493
aI2414
aI2413
aI2643
aI2487
aI2412
aI2411
asI2643
(lp935
I2641
aI2640
aI2562
aI2561
aI2563
aI2564
aI2565
aI2566
aI2567
aI2568
aI2489
aI2488
aI2490
aI2491
aI2492
aI2493
aI2494
aI2495
aI2415
aI2414
aI2642
aI2413
asI2644
(lp936
I2563
aI2562
aI2483
aI2484
aI2485
aI2486
aI2487
aI2488
aI2489
aI2490
aI2491
aI2492
aI2493
aI2494
aI2495
aI2497
aI2564
aI2565
aI2566
aI2567
aI2568
asI2645
(lp937
I2484
aI2483
aI2485
aI2486
aI2487
aI2488
aI2489
aI2490
aI2491
aI2492
aI2493
aI2494
aI2495
aI2577
aI2576
aI2578
aI2579
aI2580
aI2498
aI2497
aI2499
asI2646
(lp938
I2407
aI2406
aI2408
aI2409
aI2486
aI2410
aI2411
aI2492
aI2491
aI2493
aI2494
aI2495
aI2576
aI2575
aI2577
aI2578
aI2579
aI2580
aI2661
aI2660
aI2662
aI2581
aI2487
aI2488
aI2489
aI2490
asI2647
(lp939
I2410
aI2409
aI2411
aI2412
aI2413
aI2414
aI2495
aI2494
aI2497
aI2578
aI2577
aI2579
aI2660
aI2661
aI2662
aI2743
aI2742
aI2744
aI2745
aI2663
aI2492
aI2491
aI2493
aI2576
aI2575
aI2580
asI2648
(lp940
I2413
aI2412
aI2414
aI2415
aI2495
aI2497
aI2498
aI2579
aI2578
aI2580
aI2661
aI2660
aI2662
aI2743
aI2742
aI2744
aI2825
aI2824
aI2826
aI2907
aI2906
aI2745
aI2494
aI2577
asI2649
(lp941
I2497
aI2498
aI2499
aI2580
aI2579
aI2581
aI2662
aI2661
aI2663
aI2744
aI2743
aI2825
aI2824
aI2826
aI2907
aI2906
aI2908
aI2989
aI2988
aI2578
aI2660
aI2742
asI2650
(lp942
I2581
aI2580
aI2662
aI2661
aI2663
aI2744
aI2743
aI2745
aI2826
aI2825
aI2907
aI2906
aI2908
aI2989
aI2988
aI2990
aI3070
aI2824
asI2651
(lp943
I2745
aI2744
aI2826
aI2825
aI2827
aI2907
aI2908
aI2989
aI2988
aI2990
aI3071
aI3070
aI2906
asI2652
(lp944
I2908
aI2907
aI2989
aI2988
aI2990
aI3071
aI3070
asI2653
(lp945
I2989
aI2909
aI2990
asI2654
(lp946
I2989
aI2909
aI2747
aI2746
aI2828
aI2827
aI2908
asI2655
(lp947
I2828
aI2827
aI2909
aI2908
aI2747
aI2584
aI2583
aI2665
aI2664
aI2746
aI2745
asI2656
(lp948
I2665
aI2664
aI2746
aI2745
aI2747
aI2584
aI2420
aI2419
aI2421
aI2501
aI2583
aI2582
asI2657
(lp949
I2421
aI2420
aI2501
aI2583
aI2582
aI2584
aI2256
aI2255
aI2257
aI2337
aI2419
asI2660
(lp950
I2089
aI2088
aI2090
aI2091
aI2172
aI2171
aI2085
aI2084
asI2661
(lp951
I2085
aI2088
aI2082
aI2081
aI2083
aI2084
asI2662
(lp952
I2082
aI2081
aI2083
aI2084
aI2085
aI2080
aI2159
aI2239
asI2663
(lp953
I2160
aI2239
aI2081
aI2080
aI2237
aI2236
aI2238
aI2159
asI2664
(lp954
I2237
aI2236
aI2238
aI2239
aI2235
asI2665
(lp955
I2235
aI2234
aI2236
aI2314
aI2313
aI2233
asI2666
(lp956
I2314
aI2313
aI2312
aI2232
aI2233
asI2667
(lp957
I2313
aI2312
aI2311
aI2231
aI2232
asI2668
(lp958
I2312
aI2311
aI2231
asI2669
(lp959
I2311
aI2231
aI2151
asI2670
(lp960
I2231
aI2151
aI2152
aI2072
asI2671
(lp961
I2152
aI2151
aI2072
aI2073
aI1994
asI2672
(lp962
I2073
aI2072
aI1994
aI1916
aI1995
asI2673
(lp963
I1994
aI1916
aI1838
aI1759
aI1680
asI2674
(lp964
I1838
aI1759
aI1916
aI1680
aI1681
aI1603
aI1604
asI2675
(lp965
I1680
aI1759
aI1681
aI1603
aI1604
aI1605
aI1606
aI1607
aI1608
aI1609
aI1610
asI2676
(lp966
I1604
aI1603
aI1605
aI1606
aI1607
aI1609
aI1608
aI1610
aI1611
aI1612
aI1613
aI1694
aI1693
aI1695
aI1696
aI1697
aI1614
asI2677
(lp967
I1610
aI1609
aI1611
aI1612
aI1613
aI1614
aI1696
aI1695
aI1697
aI1778
aI1777
aI1779
aI1860
aI1859
aI1861
aI1942
aI1941
aI2024
aI2023
aI1608
aI1694
aI1693
asI2680
(lp968
I2432
aI2431
aI2513
aI2512
aI2514
aI2595
aI2594
aI2676
aI2675
aI2757
aI2756
aI2758
aI2839
aI2838
aI2920
aI2919
aI3000
aI3001
aI3002
aI3083
aI3082
aI3164
aI3163
aI3165
aI3246
aI3245
aI3327
aI3326
aI3328
aI3409
aI3408
aI3490
aI3489
aI3491
aI3571
aI3244
asI2681
(lp969
I3001
aI3000
aI3002
aI3083
aI3082
aI3164
aI3163
aI3165
aI3246
aI3245
aI3327
aI3326
aI3408
aI3407
aI3409
aI3490
aI3489
aI3491
aI3492
aI3573
aI3572
aI3574
aI3575
aI3656
aI3655
aI3657
aI3738
aI3737
aI3571
aI3654
aI3328
asI2682
(lp970
I3409
aI3408
aI3490
aI3489
aI3491
aI3572
aI3571
aI3573
aI3574
aI3655
aI3654
aI3656
aI3657
aI3658
aI3659
aI3660
aI3661
aI3662
aI3663
aI3664
aI3739
aI3738
aI3740
aI3741
aI3742
aI3492
aI3575
aI3737
asI2683
(lp971
I3656
aI3655
aI3657
aI3738
aI3737
aI3739
aI3740
aI3741
aI3742
aI3663
aI3662
aI3664
aI3584
aI3665
aI3658
aI3659
aI3660
aI3661
asI2684
(lp972
I3742
aI3741
aI3663
aI3662
aI3664
aI3665
aI3584
asI2685
(lp973
I2721
aI2720
asI2686
(lp974
I2722
aI2721
aI2723
aI2644
aI2643
aI2645
aI2566
aI2565
aI2567
aI2488
aI2487
aI2642
aI2641
aI2564
aI2486
aI2720
asI2687
(lp975
I2721
aI2720
aI2641
aI2642
aI2643
aI2644
aI2645
aI2646
aI2647
aI2568
aI2567
aI2569
aI2570
aI2571
aI2572
aI2573
aI2494
aI2493
aI2495
aI2489
aI2488
aI2490
aI2491
aI2492
aI2722
aI2723
aI2566
aI2565
aI2487
asI2688
(lp976
I2642
aI2641
aI2643
aI2564
aI2563
aI2565
aI2566
aI2487
aI2486
aI2488
aI2569
aI2568
aI2570
aI2571
aI2572
aI2573
aI2574
aI2655
aI2654
aI2656
aI2657
aI2660
aI2741
aI2740
aI2742
aI2495
aI2577
aI2576
aI2578
aI2579
aI2661
aI2644
aI2645
aI2646
aI2647
aI2567
aI2494
aI2493
asI2689
(lp977
I2488
aI2487
aI2489
aI2490
aI2491
aI2492
aI2493
aI2494
aI2575
aI2574
aI2576
aI2657
aI2656
aI2740
aI2739
aI2741
aI2822
aI2821
aI2823
aI2904
aI2903
aI2905
aI2986
aI2985
aI2987
aI3068
aI3067
aI3069
aI2743
aI2742
aI2824
aI2825
aI2906
aI2988
aI2569
aI2568
aI2570
aI2571
aI2572
aI2573
aI2655
aI2654
aI2660
asI2690
(lp978
I2494
aI2493
aI2495
aI2577
aI2576
aI2578
aI2498
aI2579
aI2660
aI2661
aI2742
aI2741
aI2823
aI2822
aI2824
aI2905
aI2904
aI2986
aI2985
aI2987
aI3068
aI3067
aI3149
aI3148
aI3150
aI3231
aI3230
aI3312
aI3311
aI3313
aI3394
aI3393
aI3475
aI3474
aI3070
aI3069
aI3151
aI3232
aI2575
aI2574
aI2657
aI2656
aI2740
aI2739
aI2821
aI2903
asI2691
(lp979
I2579
aI2578
aI2660
aI2661
aI2742
aI2741
aI2743
aI2744
aI2824
aI2825
aI2906
aI2905
aI2987
aI2986
aI3068
aI3067
aI3069
aI3150
aI3149
aI3231
aI3230
aI3312
aI3311
aI3313
aI3394
aI3393
aI3475
aI3474
aI3556
aI3555
aI3637
aI3638
aI3719
aI3476
aI3557
aI2823
aI2822
aI2904
aI2985
aI3148
asI2692
(lp980
I2825
aI2824
aI2906
aI2905
aI2907
aI2988
aI2987
aI3069
aI3068
aI3150
aI3149
aI3151
aI3232
aI3231
aI3313
aI3312
aI3394
aI3393
aI3475
aI3474
aI3556
aI3555
aI3637
aI3638
aI3719
aI2986
aI3067
aI3230
aI3311
asI2693
(lp981
I3069
aI3068
aI3070
aI3151
aI3150
aI3232
aI3231
aI2988
aI3313
aI3312
aI3394
aI3393
aI3475
aI3474
aI3476
aI3557
aI3556
aI3638
aI3637
aI3719
aI3149
aI3555
asI2694
(lp982
I3313
aI3312
aI3394
aI3393
aI3232
aI3395
aI3476
aI3475
aI3557
aI3556
aI3638
aI3637
aI3719
aI3474
asI2695
(lp983
I3395
aI3394
aI3476
aI3475
aI3556
aI3557
aI3638
aI3637
aI3719
asI2696
(lp984
I3557
aI3556
aI3637
aI3638
aI3719
asI2697
(lp985
I3638
aI3637
aI3719
asI2698
(lp986
I3638
aI3719
asI2699
(lp987
I3638
aI3637
aI3719
asI2700
(lp988
I3637
aI3557
aI3638
aI3719
asI2701
(lp989
I3476
aI3475
aI3557
aI3556
aI3477
aI3638
aI3637
aI3719
asI2702
(lp990
I3395
aI3394
aI3475
aI3476
aI3557
aI3556
aI3638
aI3637
aI3719
asI2703
(lp991
I3313
aI3312
aI3314
aI3232
aI3394
aI3395
aI3476
aI3475
aI3557
aI3556
aI3638
aI3637
aI3719
asI2704
(lp992
I3151
aI3150
aI3232
aI3231
aI3070
aI3313
aI3312
aI3394
aI3393
aI3395
aI3476
aI3475
aI3557
aI3556
aI3638
aI3637
aI3719
aI3314
asI2705
(lp993
I2988
aI2987
aI2989
aI3070
aI3069
aI2990
aI3068
aI3151
aI3150
aI3232
aI3231
aI3313
aI3312
aI3394
aI3393
aI3395
aI3476
aI3475
aI3557
aI3556
aI3638
aI3637
aI3719
aI3801
asI2706
(lp994
I2826
aI2825
aI2907
aI2906
aI2987
aI2988
aI3069
aI3068
aI3150
aI3149
aI3151
aI3232
aI3231
aI3313
aI3312
aI3394
aI3393
aI3395
aI3476
aI3475
aI3557
aI3556
aI3637
aI3638
aI3719
aI3639
aI3070
asI2713
(lp995
I2488
aI2487
aI2409
aI2408
aI2489
aI2490
aI2491
aI2492
aI2493
aI2574
aI2573
aI2575
aI2576
aI2577
aI2578
aI2579
aI2580
aI2500
aI2661
aI2660
aI2662
aI2742
aI2410
aI2494
asI2714
(lp996
I2486
aI2485
aI2487
aI2488
aI2489
aI2490
aI2491
aI2492
aI2493
aI2494
aI2495
aI2497
aI2578
aI2577
aI2498
aI2579
aI2580
aI2574
aI2573
aI2575
aI2576
aI2500
asI2715
(lp997
I2564
aI2563
aI2485
aI2484
aI2565
aI2566
aI2567
aI2488
aI2487
aI2489
aI2490
aI2491
aI2492
aI2493
aI2494
aI2495
aI2576
aI2497
aI2498
aI2578
aI2486
aI2577
asI2716
(lp998
I2563
aI2562
aI2564
aI2565
aI2566
aI2567
aI2568
aI2489
aI2488
aI2490
aI2491
aI2492
aI2493
aI2494
aI2495
aI2575
aI2487
aI2576
asI2717
(lp999
I2562
aI2561
aI2641
aI2642
aI2643
aI2564
aI2563
aI2565
aI2566
aI2567
aI2568
aI2489
aI2488
aI2490
aI2491
aI2492
aI2493
aI2414
aI2413
aI2495
aI2494
aI2415
aI2575
asI2718
(lp1000
I2641
aI2640
aI2642
aI2643
aI2564
aI2563
aI2565
aI2566
aI2567
aI2488
aI2487
aI2489
aI2490
aI2491
aI2492
aI2413
aI2412
aI2414
aI2568
aI2493
asI2719
(lp1001
I2720
aI2799
aI2640
aI2641
aI2642
aI2643
aI2564
aI2563
aI2565
aI2566
aI2567
aI2488
aI2487
aI2489
aI2490
aI2491
aI2412
aI2411
aI2413
aI2492
asI2720
(lp1002
I2412
aI2413
aI2494
aI2493
aI2495
aI2577
aI2576
aI2578
aI2579
aI2660
aI2661
aI2742
aI2741
aI2743
aI2744
aI2825
aI2824
aI2826
asI2721
(lp1003
I2413
aI2412
aI2414
aI2495
aI2494
aI2577
aI2576
aI2578
aI2579
aI2660
aI2661
aI2742
aI2741
aI2743
aI2744
aI2825
aI2824
aI2826
aI2493
asI2722
(lp1004
I2414
aI2413
aI2495
aI2494
aI2497
aI2578
aI2577
aI2579
aI2660
aI2661
aI2742
aI2741
aI2743
aI2744
aI2825
aI2824
aI2826
aI2907
aI2906
aI2576
asI2723
(lp1005
I2415
aI2414
aI2495
aI2497
aI2578
aI2577
aI2579
aI2660
aI2661
aI2662
aI2743
aI2742
aI2744
aI2825
aI2824
aI2826
aI2907
aI2906
aI2908
aI2494
aI2741
asI2724
(lp1006
I2495
aI2497
aI2498
aI2579
aI2578
aI2580
aI2661
aI2660
aI2662
aI2743
aI2742
aI2744
aI2825
aI2824
aI2826
aI2907
aI2906
aI2908
aI2989
aI2988
aI2577
asI2725
(lp1007
I2498
aI2497
aI2499
aI2580
aI2579
aI2581
aI2662
aI2661
aI2743
aI2742
aI2744
aI2825
aI2824
aI2826
aI2907
aI2906
aI2988
aI2987
aI2989
aI3070
aI3069
aI2578
aI2660
aI2908
asI2726
(lp1008
I2581
aI2580
aI2662
aI2661
aI2663
aI2744
aI2743
aI2825
aI2824
aI2826
aI2907
aI2906
aI2908
aI2989
aI2988
aI3070
aI3069
aI3071
aI3151
aI2742
aI2987
asI2727
(lp1009
I2663
aI2662
aI2744
aI2743
aI2745
aI2826
aI2825
aI2907
aI2906
aI2908
aI2989
aI2988
aI3070
aI3069
aI3071
aI3152
aI3151
aI2824
asI2728
(lp1010
I2826
aI2825
aI2907
aI2906
aI2745
aI2908
aI2989
aI2988
aI3070
aI3069
aI3071
aI3152
aI3151
aI3232
asI2729
(lp1011
I2908
aI2907
aI2989
aI2988
aI2990
aI3071
aI3070
aI3152
aI3151
aI3232
aI3069
asI2730
(lp1012
I2990
aI2989
aI3070
aI3071
aI3152
aI3151
asI2731
(lp1013
I3071
aI3070
aI2990
aI3152
aI3151
asI2732
(lp1014
I3071
aI3070
aI2990
aI2909
aI2908
aI2989
aI2828
asI2733
(lp1015
I2990
aI2989
aI2909
aI2746
aI2745
aI2747
aI2828
aI2827
aI2908
aI2665
aI2666
asI2734
(lp1016
I2747
aI2746
aI2828
aI2827
aI2909
aI2908
aI2584
aI2583
aI2665
aI2664
aI2745
asI2735
(lp1017
I2584
aI2583
aI2665
aI2664
aI2746
aI2745
aI2420
aI2419
aI2421
aI2501
asI2736
(lp1018
I2420
aI2419
aI2421
aI2501
aI2583
aI2256
aI2255
aI2257
aI2337
aI2175
asI2737
(lp1019
I2256
aI2255
aI2257
aI2337
aI2419
aI2091
aI2173
aI2172
aI2174
aI2175
asI2738
(lp1020
I2173
aI2172
aI2174
aI2175
aI2255
aI2089
aI2088
aI2090
aI2091
aI2171
asI2739
(lp1021
I2089
aI2088
aI2090
aI2091
aI2172
aI2171
aI2085
aI2084
asI2740
(lp1022
I2085
aI2084
aI2088
aI2082
aI2081
aI2083
asI2741
(lp1023
I2082
aI2081
aI2083
aI2084
aI2080
aI2159
asI2742
(lp1024
I2080
aI2159
aI2081
aI2239
aI2238
aI2237
aI2158
asI2743
(lp1025
I2237
aI2236
aI2238
aI2239
aI2235
asI2744
(lp1026
I2236
aI2235
aI2234
aI2233
asI2745
(lp1027
I2234
aI2233
aI2235
aI2313
aI2232
asI2746
(lp1028
I2233
aI2232
aI2313
asI2747
(lp1029
I2232
aI2231
aI2152
asI2750
(lp1030
I2152
aI2151
aI2072
aI2073
aI1994
aI1995
asI2751
(lp1031
I2073
aI2072
aI1994
aI1995
aI1916
asI2752
(lp1032
I1995
aI1994
aI1916
aI1838
aI1759
aI1680
asI2753
(lp1033
I1838
aI1759
aI1680
aI1681
aI1603
aI1604
aI1605
asI2754
(lp1034
I1681
aI1680
aI1603
aI1604
aI1605
aI1606
aI1607
aI1608
aI1609
aI1610
aI1611
asI2755
(lp1035
I1605
aI1604
aI1606
aI1607
aI1608
aI1609
aI1610
aI1611
aI1612
aI1613
aI1694
aI1693
aI1695
aI1696
aI1697
aI1778
aI1777
aI1779
asI2756
(lp1036
I1611
aI1610
aI1612
aI1613
aI1614
aI1695
aI1694
aI1696
aI1697
aI1778
aI1777
aI1779
aI1860
aI1859
aI1861
aI1942
aI1941
aI2024
aI2023
aI2106
aI2105
aI2187
aI2186
aI1693
asI2757
(lp1037
I1778
aI1777
aI1779
aI1860
aI1859
aI1861
aI1942
aI1941
aI2024
aI2023
aI1697
aI2106
aI2105
aI2187
aI2186
aI2269
aI2268
aI2350
aI2349
aI2432
aI2431
aI2513
aI2512
aI2594
aI2593
aI2595
aI2676
aI2675
aI2757
aI2756
asI2758
(lp1038
I2106
aI2105
aI2187
aI2186
aI2269
aI2268
aI2350
aI2349
aI2432
aI2431
aI2513
aI2512
aI2514
aI2594
aI2595
aI2676
aI2675
aI2757
aI2756
aI2758
aI2839
aI2838
aI2920
aI2919
aI3001
aI3000
aI3002
aI3083
aI3082
aI3164
aI3163
aI3245
aI3244
aI3246
aI3326
aI2593
asI2761
(lp1039
I3572
aI3571
aI3573
aI3574
aI3655
aI3654
aI3656
aI3657
aI3738
aI3737
aI3739
aI3740
aI3661
aI3660
aI3662
aI3663
aI3664
aI3584
aI3742
aI3741
aI3665
aI3658
aI3659
asI2762
(lp1040
I3739
aI3738
aI3740
aI3741
aI3742
aI3663
aI3662
aI3664
aI3665
aI3661
aI3660
aI3584
asI2763
(lp1041
I3665
aI3664
asI2764
(lp1042
I2722
aI2721
aI2723
aI2644
aI2643
aI2565
aI2564
aI2566
aI2486
aI2720
aI2642
asI2765
(lp1043
I2721
aI2720
aI2722
aI2643
aI2642
aI2644
aI2645
aI2646
aI2647
aI2568
aI2567
aI2569
aI2570
aI2571
aI2572
aI2573
aI2494
aI2493
aI2495
aI2487
aI2486
aI2488
aI2489
aI2490
aI2491
aI2492
aI2723
aI2565
aI2564
aI2566
asI2766
(lp1044
I2642
aI2641
aI2643
aI2644
aI2565
aI2564
aI2566
aI2487
aI2486
aI2488
aI2721
aI2489
aI2570
aI2569
aI2571
aI2572
aI2573
aI2574
aI2655
aI2654
aI2656
aI2657
aI2739
aI2738
aI2740
aI2741
aI2742
aI2823
aI2822
aI2824
aI2495
aI2577
aI2576
aI2578
aI2660
aI2661
aI2743
aI2722
aI2645
aI2646
aI2647
aI2568
aI2567
aI2494
aI2493
asI2767
(lp1045
I2489
aI2488
aI2490
aI2491
aI2492
aI2493
aI2494
aI2495
aI2577
aI2576
aI2657
aI2740
aI2739
aI2741
aI2822
aI2821
aI2823
aI2904
aI2903
aI2905
aI2986
aI2985
aI3067
aI3066
aI3068
aI3149
aI3148
aI3150
aI3231
aI3230
aI3232
aI3313
aI3312
aI2825
aI2824
aI2906
aI2987
aI2988
aI3069
aI3151
aI2570
aI2569
aI2571
aI2572
aI2573
aI2574
aI2655
aI2654
aI2656
aI2738
aI2742
asI2768
(lp1046
I2495
aI2577
aI2576
aI2578
aI2579
aI2660
aI2661
aI2742
aI2741
aI2743
aI2824
aI2823
aI2905
aI2904
aI2906
aI2987
aI2986
aI3068
aI3067
aI3149
aI3148
aI3150
aI3231
aI3230
aI3312
aI3311
aI3393
aI3392
aI3394
aI3475
aI3474
aI3556
aI3555
aI3637
aI3638
aI3719
aI3476
aI3557
aI3313
aI2657
aI2740
aI2739
aI2822
aI2821
aI2903
aI2985
aI3066
aI3232
asI2769
(lp1047
I2743
aI2742
aI2824
aI2823
aI2825
aI2906
aI2905
aI2987
aI2986
aI2988
aI3069
aI3068
aI3150
aI3149
aI3151
aI3232
aI3231
aI3313
aI3312
aI3394
aI3393
aI3475
aI3474
aI3556
aI3555
aI3637
aI3638
aI3719
aI2904
aI3067
aI3148
aI3230
aI3311
aI3392
asI2770
(lp1048
I3070
aI3069
aI3151
aI3150
aI3232
aI3231
aI3313
aI3312
aI3394
aI3393
aI3475
aI3474
aI3476
aI3557
aI3556
aI3638
aI3637
aI3719
aI3149
aI3555
asI2771
(lp1049
I3476
aI3475
aI3557
aI3556
aI3638
aI3637
aI3719
asI2772
(lp1050
sI2773
(lp1051
sI2774
(lp1052
sI2775
(lp1053
sI2776
(lp1054
sI2777
(lp1055
sI2778
(lp1056
sI2779
(lp1057
sI2780
(lp1058
sI2781
(lp1059
sI2782
(lp1060
sI2783
(lp1061
sI2784
(lp1062
sI2785
(lp1063
I3801
aI3719
asI2799
(lp1064
I2413
aI2412
aI2494
aI2493
aI2495
aI2577
aI2576
aI2578
aI2579
aI2660
aI2661
aI2742
aI2741
aI2743
aI2744
aI2825
aI2824
aI2826
aI2414
asI2804
(lp1065
I2989
aI2988
aI2908
aI3070
aI3069
aI3071
aI3152
aI3151
aI3233
aI3232
aI3314
aI3313
aI3395
aI3394
aI3150
asI2805
(lp1066
I3070
aI3069
aI2989
aI3071
aI3152
aI3151
aI3233
aI3232
aI3314
aI3313
aI3315
aI3395
aI3394
asI2806
(lp1067
I3071
aI3070
aI3151
aI3152
aI3233
aI3232
aI3314
aI3313
aI3315
aI3395
asI2807
(lp1068
I3152
aI3151
aI3233
aI3232
aI3234
aI3314
aI3315
aI3313
asI2808
(lp1069
I3232
aI3152
aI3233
aI3234
aI3314
asI2809
(lp1070
I3232
aI3152
aI3153
aI3233
asI2810
(lp1071
I3152
aI3071
aI3070
aI3151
aI2990
aI2991
asI2811
(lp1072
I3071
aI3070
aI3152
aI3151
aI2990
aI2828
aI2827
aI2909
aI2908
aI2989
asI2812
(lp1073
I2909
aI2908
aI2990
aI2989
aI2828
aI2665
aI2664
aI2666
aI2747
aI2746
aI2827
aI2584
asI2813
(lp1074
I2666
aI2665
aI2747
aI2746
aI2828
aI2827
aI2501
aI2584
aI2583
aI2664
aI2421
asI2814
(lp1075
I2584
aI2583
aI2665
aI2664
aI2420
aI2419
aI2421
aI2501
asI2815
(lp1076
I2420
aI2419
aI2421
aI2501
aI2175
aI2174
aI2256
aI2255
aI2257
aI2337
asI2816
(lp1077
I2256
aI2255
aI2257
aI2337
aI2175
aI2091
aI2173
aI2172
aI2174
asI2817
(lp1078
I2091
aI2173
aI2172
aI2174
aI2175
aI2088
aI2089
aI2090
asI2818
(lp1079
I2089
aI2088
aI2090
aI2091
aI2085
aI2084
asI2819
(lp1080
I2085
aI2084
aI2088
aI2082
aI2081
aI2083
asI2820
(lp1081
I2082
aI2081
aI2083
aI2084
aI2080
aI2159
asI2821
(lp1082
I2080
aI2159
aI2081
aI2238
aI2237
aI2158
aI2157
asI2822
(lp1083
I2238
aI2237
aI2159
aI2158
aI2236
aI2235
asI2823
(lp1084
I2236
aI2235
aI2237
aI2234
asI2824
(lp1085
I2234
aI2233
aI2235
asI2825
(lp1086
I2233
aI2232
asI2826
(lp1087
I2232
aI2152
asI2827
(lp1088
I2232
aI2152
aI2153
aI2073
asI2828
(lp1089
I2073
aI2072
aI2074
aI1994
aI2152
aI2153
asI2829
(lp1090
I2073
aI2072
aI2152
aI1994
aI1995
aI2074
asI2832
(lp1091
I1838
aI1759
aI1680
aI1681
aI1603
aI1604
aI1605
aI1606
aI1839
asI2833
(lp1092
I1681
aI1680
aI1603
aI1604
aI1605
aI1606
aI1607
aI1608
aI1609
aI1610
aI1611
aI1612
aI1613
asI2834
(lp1093
I1606
aI1605
aI1607
aI1608
aI1609
aI1610
aI1611
aI1612
aI1613
aI1694
aI1693
aI1695
aI1696
aI1777
aI1776
aI1778
aI1779
aI1860
aI1859
aI1614
asI2835
(lp1094
I1612
aI1611
aI1613
aI1694
aI1693
aI1695
aI1696
aI1697
aI1778
aI1777
aI1779
aI1860
aI1859
aI1861
aI1942
aI1941
aI2024
aI2023
aI2105
aI2104
aI2106
aI2187
aI2186
aI2269
aI2268
aI2350
aI2349
aI1776
asI2836
(lp1095
I1860
aI1859
aI1861
aI1942
aI1941
aI2024
aI2023
aI2106
aI2105
aI2187
aI2186
aI1779
aI2269
aI2268
aI2350
aI2349
aI2432
aI2431
aI2513
aI2512
aI2594
aI2593
aI2595
aI2676
aI2675
aI2757
aI2756
aI2838
aI2837
aI2839
aI2919
aI2104
asI2837
(lp1096
I2187
aI2269
aI2268
aI2350
aI2349
aI2432
aI2431
aI2513
aI2512
aI2594
aI2593
aI2595
aI2676
aI2675
aI2757
aI2756
aI2758
aI2839
aI2838
aI2920
aI2919
aI3001
aI3000
aI3002
aI3083
aI3082
aI3164
aI3163
aI3165
aI3246
aI3245
aI3327
aI3326
aI3408
aI3407
aI3409
aI3244
aI2837
asI2838
(lp1097
I2758
aI2757
aI2839
aI2838
aI2920
aI2919
aI3001
aI3000
aI3002
aI3083
aI3082
aI3164
aI3163
aI3245
aI3244
aI3246
aI3326
aI3327
aI3328
aI3409
aI3408
aI3410
aI3491
aI3490
aI3492
aI3573
aI3572
aI3574
aI3655
aI3654
aI3656
aI3737
aI3736
aI3489
aI3571
aI3165
aI3407
asI2839
(lp1098
I3327
aI3326
aI3408
aI3407
aI3409
aI3490
aI3489
aI3491
aI3572
aI3571
aI3573
aI3654
aI3653
aI3655
aI3656
aI3657
aI3658
aI3659
aI3660
aI3661
aI3662
aI3663
aI3738
aI3737
aI3739
aI3740
aI3741
aI3742
aI3743
aI3328
aI3410
aI3492
aI3574
aI3736
asI2840
(lp1099
I3655
aI3654
aI3656
aI3657
aI3658
aI3739
aI3738
aI3740
aI3741
aI3742
aI3663
aI3662
aI3664
aI3584
aI3665
aI3659
aI3660
aI3661
asI2842
(lp1100
I2721
aI2720
aI2722
aI2643
aI2642
aI2563
asI2843
(lp1101
I2721
aI2720
aI2722
aI2723
aI2724
aI2645
aI2644
aI2646
aI2647
aI2568
aI2567
aI2569
aI2570
aI2491
aI2490
aI2492
aI2493
aI2564
aI2563
aI2565
aI2566
aI2489
aI2573
aI2643
aI2642
asI2844
(lp1102
I2721
aI2720
aI2722
aI2643
aI2642
aI2644
aI2565
aI2564
aI2566
aI2486
aI2487
aI2568
aI2567
aI2569
aI2570
aI2571
aI2572
aI2573
aI2654
aI2653
aI2655
aI2656
aI2657
aI2739
aI2738
aI2740
aI2741
aI2742
aI2743
aI2494
aI2493
aI2575
aI2574
aI2576
aI2577
aI2660
aI2723
aI2724
aI2645
aI2646
aI2647
aI2491
aI2490
aI2492
asI2845
(lp1103
I2487
aI2486
aI2488
aI2489
aI2490
aI2491
aI2492
aI2493
aI2494
aI2495
aI2576
aI2575
aI2577
aI2657
aI2740
aI2739
aI2741
aI2822
aI2821
aI2823
aI2904
aI2903
aI2985
aI2984
aI2986
aI3067
aI3066
aI3068
aI3149
aI3148
aI3150
aI3231
aI3230
aI3312
aI3311
aI3313
aI2824
aI2825
aI2906
aI2905
aI2987
aI2988
aI3069
aI3232
aI2743
aI2568
aI2567
aI2569
aI2570
aI2571
aI2572
aI2573
aI2654
aI2653
aI2655
aI2656
aI2738
aI2742
asI2846
(lp1104
I2495
aI2577
aI2576
aI2578
aI2660
aI2661
aI2742
aI2741
aI2743
aI2824
aI2823
aI2825
aI2906
aI2905
aI2987
aI2986
aI3068
aI3067
aI3069
aI3150
aI3149
aI3231
aI3230
aI3312
aI3311
aI3393
aI3392
aI3394
aI3475
aI3474
aI3556
aI3555
aI3637
aI3719
aI3476
aI3557
aI3638
aI3313
aI2575
aI2657
aI2740
aI2739
aI2822
aI2821
aI2904
aI2903
aI2985
aI2984
aI3066
aI3148
asI2847
(lp1105
I2825
aI2824
aI2906
aI2905
aI2987
aI2986
aI2988
aI3069
aI3068
aI3150
aI3149
aI3151
aI3232
aI3231
aI3313
aI3312
aI3394
aI3393
aI3475
aI3474
aI3556
aI3555
aI3557
aI3638
aI3637
aI3719
aI3067
aI3230
aI3311
aI3392
asI2848
(lp1106
I3394
aI3393
aI3475
aI3474
aI3476
aI3557
aI3556
aI3638
aI3637
aI3719
aI3313
aI3555
asI2849
(lp1107
sI2850
(lp1108
sI2851
(lp1109
sI2852
(lp1110
sI2853
(lp1111
sI2854
(lp1112
sI2855
(lp1113
sI2856
(lp1114
sI2857
(lp1115
sI2858
(lp1116
sI2859
(lp1117
sI2860
(lp1118
sI2861
(lp1119
sI2862
(lp1120
sI2863
(lp1121
sI2864
(lp1122
sI2889
(lp1123
I3153
aI3152
aI3233
aI2909
aI2908
aI2990
aI2989
aI2991
aI3071
aI2910
asI2890
(lp1124
I2991
aI2990
aI3071
aI2747
aI2746
aI2828
aI2827
aI2909
aI2908
aI2989
asI2891
(lp1125
I2828
aI2827
aI2909
aI2908
aI2990
aI2989
aI2584
aI2583
aI2665
aI2664
aI2666
aI2747
aI2746
asI2892
(lp1126
I2665
aI2664
aI2666
aI2747
aI2746
aI2584
aI2827
aI2421
aI2420
aI2501
aI2583
asI2893
(lp1127
I2501
aI2584
aI2583
aI2421
aI2257
aI2256
aI2337
aI2420
aI2419
aI2258
asI2894
(lp1128
I2420
aI2419
aI2421
aI2174
aI2173
aI2175
aI2256
aI2255
aI2257
aI2337
asI2895
(lp1129
I2175
aI2174
aI2256
aI2255
aI2257
aI2337
aI2091
aI2090
aI2173
aI2172
asI2896
(lp1130
I2091
aI2173
aI2172
aI2174
aI2088
aI2089
aI2090
asI2897
(lp1131
I2088
aI2089
aI2090
aI2091
aI2085
aI2084
asI2898
(lp1132
I2085
aI2084
aI2082
aI2081
aI2083
asI2899
(lp1133
I2082
aI2081
aI2083
aI2084
aI2080
aI2159
asI2900
(lp1134
I2080
aI2159
aI2081
aI2158
aI2157
asI2901
(lp1135
I2158
aI2157
aI2159
aI2237
aI2236
aI2235
aI2156
asI2902
(lp1136
I2236
aI2235
aI2237
aI2234
asI2903
(lp1137
I2235
aI2234
aI2233
asI2904
(lp1138
I2234
aI2233
aI2153
asI2905
(lp1139
I2233
aI2232
aI2153
aI2152
asI2906
(lp1140
I2232
aI2152
aI2153
aI2073
asI2907
(lp1141
I2153
aI2152
aI2073
aI2074
aI1994
asI2908
(lp1142
I2074
aI2073
aI1994
aI1995
aI1916
asI2909
(lp1143
I1995
aI1994
aI1916
aI1917
aI1838
aI1839
aI1759
asI2910
(lp1144
I1916
aI1917
aI1838
aI1839
aI1680
aI1759
aI1681
aI1682
aI1603
asI2911
(lp1145
I1839
aI1838
aI1680
aI1759
aI1681
aI1603
aI1604
aI1605
aI1606
aI1607
aI1608
aI1682
asI2912
(lp1146
I1603
aI1604
aI1605
aI1606
aI1607
aI1608
aI1609
aI1610
aI1611
aI1612
aI1613
aI1614
aI1694
asI2913
(lp1147
I1607
aI1606
aI1608
aI1609
aI1610
aI1611
aI1612
aI1613
aI1614
aI1695
aI1694
aI1696
aI1777
aI1776
aI1778
aI1779
aI1860
aI1859
aI1861
aI1942
aI1941
asI2914
(lp1148
I1614
aI1613
aI1695
aI1694
aI1696
aI1777
aI1776
aI1778
aI1779
aI1860
aI1859
aI1861
aI1942
aI1941
aI2024
aI2023
aI2105
aI2104
aI2106
aI2187
aI2186
aI2269
aI2268
aI2350
aI2349
aI2432
aI2431
asI2915
(lp1149
I1861
aI1860
aI1942
aI1941
aI2024
aI2023
aI2106
aI2105
aI2187
aI2186
aI2269
aI2268
aI2350
aI2349
aI2432
aI2431
aI2513
aI2512
aI2594
aI2593
aI2595
aI2676
aI2675
aI2757
aI2756
aI2838
aI2837
aI2839
aI2920
aI2919
aI3001
aI3000
aI3082
aI3081
aI2104
asI2916
(lp1150
I2350
aI2432
aI2431
aI2513
aI2512
aI2594
aI2593
aI2595
aI2676
aI2675
aI2757
aI2756
aI2838
aI2837
aI2839
aI2919
aI2920
aI3001
aI3000
aI3002
aI3083
aI3082
aI3164
aI3163
aI3165
aI3246
aI3245
aI3327
aI3326
aI3328
aI3409
aI3408
aI3490
aI3489
aI3491
aI3571
aI3244
aI3407
aI3081
asI2917
(lp1151
I2920
aI2919
aI3001
aI3000
aI3002
aI3083
aI3082
aI3164
aI3163
aI3245
aI3244
aI3246
aI3327
aI3326
aI3408
aI3407
aI3409
aI3490
aI3489
aI3491
aI3492
aI3573
aI3572
aI3574
aI3655
aI3654
aI3656
aI3657
aI3738
aI3737
aI3739
aI3571
aI3653
aI3165
aI3328
asI2918
(lp1152
I3490
aI3489
aI3491
aI3572
aI3571
aI3573
aI3574
aI3655
aI3654
aI3656
aI3737
aI3736
aI3409
aI3738
aI3739
aI3660
aI3659
aI3661
aI3662
aI3663
aI3664
aI3665
aI3666
aI3740
aI3741
aI3742
aI3492
aI3657
asI2919
(lp1153
I3738
aI3737
aI3739
aI3740
aI3741
aI3742
aI3743
aI3663
aI3664
aI3665
aI3666
aI3660
aI3659
aI3661
aI3662
asI2920
(lp1154
I3664
aI3663
aI3665
asI2921
(lp1155
I2722
aI2721
aI2723
aI2644
aI2643
aI2645
aI2566
aI2565
aI2567
aI2488
aI2487
aI2720
aI2642
asI2923
(lp1156
I2564
aI2563
aI2565
aI2566
aI2567
aI2568
aI2569
aI2490
aI2489
aI2491
aI2492
aI2493
aI2573
aI2494
aI2575
aI2574
aI2576
aI2657
aI2656
aI2739
aI2738
aI2740
aI2821
aI2820
aI2822
aI2903
aI2902
aI2904
aI2985
aI2984
aI2986
aI3067
aI3066
aI3068
aI3149
aI3148
aI3150
aI3231
aI3230
aI2660
aI2661
aI2742
aI2741
aI2823
aI2824
aI2905
aI2906
aI2987
aI3069
aI3151
aI2648
aI2647
aI2649
aI2650
aI2651
aI2652
aI2653
aI2654
aI2655
aI2579
asI2924
(lp1157
I2494
aI2493
aI2575
aI2574
aI2576
aI2577
aI2657
aI2660
aI2741
aI2740
aI2742
aI2743
aI2824
aI2823
aI2825
aI2906
aI2905
aI2987
aI2986
aI3068
aI3067
aI3149
aI3148
aI3150
aI3231
aI3230
aI3312
aI3311
aI3393
aI3392
aI3474
aI3473
aI3475
aI3556
aI3555
aI3637
aI3719
aI3232
aI3313
aI3394
aI3557
aI3638
aI2656
aI2739
aI2738
aI2821
aI2820
aI2822
aI2903
aI2902
aI2904
aI2985
aI2984
aI3066
asI2925
(lp1158
I2824
aI2823
aI2825
aI2906
aI2905
aI2987
aI2986
aI2988
aI3069
aI3068
aI3150
aI3149
aI3231
aI3230
aI3232
aI3313
aI3312
aI2743
aI3394
aI3393
aI3475
aI3474
aI3556
aI3555
aI3557
aI3638
aI3637
aI3719
aI3067
aI3148
aI3311
aI3392
aI3473
asI2926
(lp1159
I3394
aI3393
aI3475
aI3474
aI3476
aI3557
aI3556
aI3638
aI3637
aI3719
aI3313
aI3555
asI2927
(lp1160
sI2928
(lp1161
sI2929
(lp1162
sI2930
(lp1163
sI2931
(lp1164
sI2932
(lp1165
sI2933
(lp1166
sI2934
(lp1167
sI2935
(lp1168
sI2937
(lp1169
sI2938
(lp1170
sI2939
(lp1171
sI2940
(lp1172
sI2941
(lp1173
sI2942
(lp1174
sI2943
(lp1175
sI2973
(lp1176
I2257
aI2256
aI2258
aI2420
aI2174
aI2173
aI2175
aI2255
aI2176
asI2974
(lp1177
I2174
aI2173
aI2175
aI2256
aI2255
aI2090
aI2089
aI2091
aI2172
asI2975
(lp1178
I2091
aI2090
aI2173
aI2172
aI2007
aI2006
aI2088
aI2089
asI2976
(lp1179
I2088
aI2089
aI2090
aI2085
aI2084
aI2005
aI2006
aI2007
asI2977
(lp1180
I2085
aI2084
aI2082
aI2081
aI2083
asI2978
(lp1181
I2082
aI2081
aI2083
aI2084
aI2080
aI2159
asI2979
(lp1182
I2080
aI2159
aI2081
aI2158
aI2157
asI2980
(lp1183
I2158
aI2157
aI2159
aI2156
asI2981
(lp1184
I2236
aI2235
aI2157
aI2156
aI2155
asI2982
(lp1185
I2235
aI2234
aI2154
aI2155
asI2983
(lp1186
I2234
aI2233
aI2153
aI2154
asI2984
(lp1187
I2233
aI2153
asI2985
(lp1188
I2074
aI2073
aI2153
asI2986
(lp1189
I2153
aI2073
aI2074
aI1995
aI1994
asI2987
(lp1190
I2074
aI2073
aI1994
aI1995
aI1916
aI1917
asI2988
(lp1191
I1995
aI1994
aI1916
aI1917
aI1838
aI1839
aI1680
aI1759
asI2989
(lp1192
I1917
aI1916
aI1838
aI1839
aI1759
aI1680
aI1681
aI1682
aI1603
aI1604
asI2990
(lp1193
I1680
aI1759
aI1681
aI1682
aI1603
aI1604
aI1605
aI1606
aI1607
aI1608
aI1609
asI2991
(lp1194
I1604
aI1603
aI1605
aI1606
aI1607
aI1608
aI1609
aI1610
aI1611
aI1612
aI1613
aI1694
aI1693
aI1695
aI1696
asI2992
(lp1195
I1609
aI1608
aI1610
aI1611
aI1612
aI1613
aI1614
aI1694
aI1695
aI1696
aI1777
aI1776
aI1778
aI1779
aI1860
aI1859
aI1861
aI1942
aI1941
aI2024
aI2023
aI1697
aI1693
asI2993
(lp1196
I1695
aI1694
aI1696
aI1777
aI1776
aI1778
aI1779
aI1860
aI1859
aI1861
aI1942
aI1941
aI2024
aI2023
aI2106
aI2105
aI2187
aI2186
aI2269
aI2268
aI2350
aI2349
aI2431
aI2430
aI2432
aI2513
aI2512
aI2594
aI2593
asI2994
(lp1197
I1942
aI2024
aI2023
aI2106
aI2105
aI2187
aI2186
aI2269
aI2268
aI2350
aI2349
aI2432
aI2431
aI2513
aI2512
aI2594
aI2593
aI2595
aI2676
aI2675
aI2757
aI2756
aI2838
aI2837
aI2839
aI2920
aI2919
aI3001
aI3000
aI3082
aI3081
aI3083
aI3164
aI3163
aI2430
asI2995
(lp1198
I2513
aI2512
aI2594
aI2593
aI2595
aI2676
aI2675
aI2757
aI2756
aI2838
aI2837
aI2839
aI2920
aI2919
aI3001
aI3000
aI3082
aI3081
aI2432
aI3083
aI3164
aI3163
aI3165
aI3246
aI3245
aI3327
aI3326
aI3328
aI3409
aI3408
aI3490
aI3489
aI3491
aI3572
aI3571
aI3573
aI3653
aI3244
asI2996
(lp1199
I3083
aI3082
aI3164
aI3163
aI3245
aI3244
aI3246
aI3327
aI3326
aI3408
aI3407
aI3409
aI3490
aI3489
aI3491
aI3571
aI3572
aI3573
aI3574
aI3655
aI3654
aI3656
aI3657
aI3658
aI3739
aI3738
aI3740
aI3741
aI3653
aI3737
aI3165
aI3328
asI2997
(lp1200
I3572
aI3571
aI3573
aI3654
aI3653
aI3655
aI3656
aI3657
aI3738
aI3737
aI3739
aI3740
aI3741
aI3662
aI3661
aI3663
aI3664
aI3584
aI3742
aI3743
aI3665
aI3574
aI3658
asI2998
(lp1201
I3740
aI3739
aI3741
aI3742
aI3663
aI3662
aI3664
aI3665
aI3666
aI3661
aI3584
asI2999
(lp1202
I3666
aI2721
aI2720
aI2722
aI2643
aI2642
asI3000
(lp1203
I2721
aI2720
aI2722
aI2723
aI2724
aI2645
aI2644
aI2646
aI2647
aI2648
aI2569
aI2568
aI2570
aI2571
aI2572
aI2493
aI2492
aI2494
aI2643
aI2566
aI2565
aI2567
aI2491
aI2642
asI3001
(lp1204
I2721
aI2720
aI2722
aI2643
aI2642
aI2644
aI2645
aI2566
aI2565
aI2567
aI2488
aI2487
aI2489
aI2490
aI2571
aI2570
aI2572
aI2573
aI2654
aI2653
aI2655
aI2656
aI2737
aI2736
aI2738
aI2739
aI2740
aI2821
aI2820
aI2822
aI2823
aI2904
aI2903
aI2905
aI2906
aI2907
aI2495
aI2494
aI2576
aI2575
aI2577
aI2657
aI2741
aI2742
aI2824
aI2723
aI2724
aI2646
aI2647
aI2648
aI2569
aI2568
aI2493
aI2492
asI3002
(lp1205
I2489
aI2488
aI2490
aI2491
aI2572
aI2571
aI2573
aI2574
aI2575
aI2576
aI2577
aI2578
aI2579
aI2660
aI2661
aI2742
aI2741
aI2823
aI2822
aI2904
aI2903
aI2905
aI2986
aI2985
aI3067
aI3066
aI3068
aI3149
aI3148
aI3230
aI3229
aI3311
aI3310
aI3312
aI3393
aI3392
aI3474
aI3473
aI3475
aI3556
aI3555
aI3637
aI3638
aI3719
aI2988
aI2987
aI3069
aI3150
aI3231
aI3313
aI3394
aI2907
aI2570
aI2654
aI2653
aI2655
aI2656
aI2737
aI2736
aI2738
aI2739
aI2740
aI2821
aI2820
aI2906
asI3003
(lp1206
I2660
aI2661
aI2742
aI2741
aI2823
aI2822
aI2824
aI2905
aI2904
aI2906
aI2987
aI2986
aI3068
aI3067
aI3069
aI3150
aI3149
aI3151
aI3231
aI3232
aI3313
aI3312
aI3394
aI3393
aI3475
aI3474
aI3556
aI3555
aI3637
aI3638
aI3719
aI2903
aI2985
aI3066
aI3148
aI3230
aI3229
aI3311
aI3310
aI3392
aI3473
asI3004
(lp1207
I3232
aI3231
aI3313
aI3312
aI3394
aI3393
aI3475
aI3474
aI3556
aI3555
aI3557
aI3638
aI3637
aI3719
asI3005
(lp1208
sI3006
(lp1209
sI3007
(lp1210
sI3008
(lp1211
sI3009
(lp1212
sI3010
(lp1213
sI3011
(lp1214
sI3012
(lp1215
sI3013
(lp1216
sI3014
(lp1217
sI3015
(lp1218
sI3016
(lp1219
sI3017
(lp1220
sI3018
(lp1221
sI3019
(lp1222
sI3020
(lp1223
sI3021
(lp1224
sI3022
(lp1225
sI3058
(lp1226
I2080
aI2159
aI2081
aI2158
aI2157
asI3059
(lp1227
I2158
aI2157
aI2159
aI2156
asI3060
(lp1228
I2157
aI2156
aI2155
asI3061
(lp1229
I2156
aI2155
aI2154
asI3062
(lp1230
I2155
aI2154
asI3063
(lp1231
I2154
aI2153
aI2074
asI3064
(lp1232
I2074
aI2073
aI1995
aI1994
aI2153
aI2154
asI3065
(lp1233
I2074
aI2073
aI2153
aI1995
aI1994
aI1996
aI1916
asI3066
(lp1234
I1995
aI1994
aI2074
aI1916
aI1917
aI1838
aI1996
asI3067
(lp1235
I1916
aI1917
aI1995
aI1838
aI1839
aI1680
aI1759
aI1681
asI3068
(lp1236
I1838
aI1839
aI1680
aI1759
aI1917
aI1681
aI1682
aI1603
aI1604
aI1605
asI3069
(lp1237
I1681
aI1680
aI1682
aI1603
aI1604
aI1605
aI1606
aI1607
aI1608
aI1609
aI1610
asI3070
(lp1238
I1605
aI1604
aI1606
aI1607
aI1608
aI1609
aI1610
aI1611
aI1612
aI1693
aI1692
aI1694
aI1695
aI1696
aI1697
aI1777
aI1613
asI3071
(lp1239
I1610
aI1609
aI1611
aI1612
aI1613
aI1694
aI1693
aI1695
aI1696
aI1697
aI1778
aI1777
aI1779
aI1860
aI1859
aI1861
aI1942
aI1941
aI2024
aI2023
aI2106
aI2105
aI1692
asI3073
(lp1240
I2024
aI2106
aI2105
aI2187
aI2186
aI2269
aI2268
aI2350
aI2349
aI2432
aI2431
aI2513
aI2512
aI2594
aI2593
aI2595
aI2676
aI2675
aI2757
aI2756
aI2838
aI2837
aI2839
aI2920
aI2919
aI3001
aI3000
aI3082
aI3081
aI3083
aI3164
aI3163
aI3245
aI3244
aI3246
aI3326
aI2430
asI3074
(lp1241
I2595
aI2594
aI2676
aI2675
aI2757
aI2756
aI2838
aI2837
aI2839
aI2920
aI2919
aI3001
aI3000
aI3082
aI3081
aI3083
aI3164
aI3163
aI3245
aI3244
aI3246
aI3327
aI3326
aI3328
aI3409
aI3408
aI3410
aI3491
aI3490
aI3572
aI3571
aI3573
aI3654
aI3653
aI3655
aI3735
aI3407
aI3489
asI3075
(lp1242
I3245
aI3244
aI3246
aI3327
aI3326
aI3328
aI3409
aI3408
aI3490
aI3489
aI3491
aI3572
aI3571
aI3573
aI3164
aI3653
aI3654
aI3655
aI3656
aI3657
aI3658
aI3659
aI3660
aI3741
aI3740
aI3742
aI3743
aI3736
aI3735
aI3737
aI3738
aI3739
aI3410
asI3076
(lp1243
I3654
aI3653
aI3655
aI3656
aI3657
aI3738
aI3737
aI3739
aI3740
aI3741
aI3742
aI3663
aI3662
aI3664
aI3665
aI3743
aI3658
aI3659
aI3660
asI3077
(lp1244
I3742
aI3741
aI3743
aI3664
aI3663
aI3665
aI3662
asI3078
(lp1245
I2722
aI2721
aI2723
aI2644
aI2643
aI2645
aI2566
aI2565
aI2567
aI2487
asI3079
(lp1246
I2721
aI2720
aI2722
aI2643
aI2642
aI2644
aI2645
aI2646
aI2647
aI2648
aI2649
aI2650
aI2651
aI2652
aI2653
aI2654
aI2655
aI2656
aI2657
aI2568
aI2567
aI2569
aI2570
aI2571
aI2572
aI2573
aI2574
aI2575
aI2576
aI2577
aI2578
aI2487
aI2723
aI2566
aI2565
asI3080
(lp1247
I2644
aI2643
aI2645
aI2566
aI2565
aI2567
aI2568
aI2569
aI2570
aI2571
aI2492
aI2491
aI2493
aI2494
aI2575
aI2574
aI2576
aI2657
aI2656
aI2739
aI2738
aI2740
aI2821
aI2820
aI2822
aI2903
aI2902
aI2904
aI2985
aI2984
aI2986
aI3067
aI3066
aI3148
aI3147
aI3149
aI3230
aI3229
aI3231
aI3312
aI3311
aI3313
aI3394
aI3393
aI2660
aI2661
aI2742
aI2741
aI2823
aI2824
aI2905
aI2987
aI3068
aI3150
aI3232
aI2646
aI2647
aI2648
aI2649
aI2650
aI2651
aI2652
aI2653
aI2654
aI2655
asI3081
(lp1248
I2495
aI2494
aI2576
aI2575
aI2577
aI2657
aI2740
aI2739
aI2741
aI2742
aI2823
aI2822
aI2824
aI2905
aI2904
aI2906
aI2907
aI2988
aI2987
aI3069
aI3068
aI3150
aI3149
aI3231
aI3230
aI3312
aI3311
aI3393
aI3392
aI3394
aI3475
aI3474
aI3556
aI3555
aI3637
aI3557
aI3638
aI3719
aI2574
aI2656
aI2738
aI2821
aI2820
aI2903
aI2902
aI2985
aI2984
aI2986
aI3067
aI3066
aI3148
aI3147
aI3229
aI3313
asI3082
(lp1249
I2988
aI2987
aI3069
aI3068
aI3150
aI3149
aI3231
aI3230
aI3312
aI3311
aI3313
aI3394
aI3393
aI3475
aI3474
aI3556
aI3555
aI3637
aI3638
aI3719
aI2907
aI3392
asI3083
(lp1250
sI3084
(lp1251
sI3085
(lp1252
sI3086
(lp1253
sI3087
(lp1254
sI3088
(lp1255
sI3089
(lp1256
sI3090
(lp1257
sI3091
(lp1258
sI3092
(lp1259
sI3093
(lp1260
sI3094
(lp1261
sI3095
(lp1262
sI3096
(lp1263
sI3097
(lp1264
sI3098
(lp1265
sI3099
(lp1266
sI3100
(lp1267
sI3142
(lp1268
I2075
aI2074
aI2154
asI3143
(lp1269
I2154
aI2074
aI2075
aI1995
asI3144
(lp1270
I1995
aI1994
aI2074
aI1996
aI1917
aI1916
aI2075
asI3145
(lp1271
I1996
aI1995
aI1916
aI1917
aI1838
aI1839
asI3146
(lp1272
I1917
aI1916
aI1838
aI1839
aI1680
aI1759
aI1681
aI1682
aI1760
asI3147
(lp1273
I1839
aI1838
aI1680
aI1759
aI1681
aI1682
aI1683
aI1604
aI1603
aI1605
aI1606
asI3148
(lp1274
I1682
aI1681
aI1603
aI1604
aI1605
aI1606
aI1607
aI1608
aI1609
aI1610
aI1611
aI1612
aI1683
asI3149
(lp1275
I1606
aI1605
aI1607
aI1608
aI1609
aI1610
aI1611
aI1612
aI1613
aI1694
aI1693
aI1695
aI1696
aI1777
aI1776
aI1778
aI1779
asI3150
(lp1276
I1611
aI1610
aI1612
aI1613
aI1694
aI1693
aI1695
aI1696
aI1697
aI1777
aI1778
aI1779
aI1860
aI1859
aI1861
aI1942
aI1941
aI2023
aI2022
aI2024
aI2105
aI2104
aI2106
aI2187
aI2186
aI2268
aI1776
asI3151
(lp1277
I1778
aI1777
aI1779
aI1860
aI1859
aI1861
aI1942
aI1941
aI2024
aI2023
aI2106
aI2105
aI2187
aI2186
aI2269
aI2268
aI2350
aI2349
aI2431
aI2430
aI2432
aI2513
aI2512
aI2594
aI2593
aI2595
aI2676
aI2675
aI2757
aI2756
aI2838
aI2837
aI2022
aI2104
asI3152
(lp1278
I2187
aI2186
aI2269
aI2268
aI2350
aI2349
aI2432
aI2431
aI2513
aI2512
aI2594
aI2593
aI2595
aI2676
aI2675
aI2106
aI2756
aI2757
aI2838
aI2837
aI2839
aI2920
aI2919
aI3001
aI3000
aI3002
aI3083
aI3082
aI3164
aI3163
aI3245
aI3244
aI3246
aI3327
aI3326
aI3408
aI3407
aI3081
aI2430
asI3153
(lp1279
I2757
aI2756
aI2838
aI2837
aI2839
aI2920
aI2919
aI3001
aI3000
aI3082
aI3081
aI3083
aI3164
aI3163
aI3245
aI3244
aI3246
aI3326
aI3327
aI3408
aI3407
aI3409
aI3490
aI3489
aI3491
aI3492
aI3573
aI3572
aI3574
aI3655
aI3654
aI3656
aI3737
aI3736
aI3571
aI3653
aI3002
asI3155
(lp1280
I3736
aI3735
aI3737
aI3738
aI3739
aI3740
aI3741
aI3742
aI3743
aI3664
aI3663
aI3665
aI3666
aI3656
aI3655
aI3657
aI3658
aI3659
aI3660
aI3661
aI3662
asI3156
(lp1281
I3664
aI3663
aI3665
aI3743
asI3157
(lp1282
I2723
aI2722
aI2724
aI2645
aI2644
aI2646
aI2647
aI2568
aI2567
aI2569
aI2490
aI2489
aI2491
aI2721
aI2720
aI2643
aI2566
asI3158
(lp1283
I2722
aI2721
aI2723
aI2644
aI2643
aI2645
aI2566
aI2565
aI2567
aI2487
aI2568
aI2569
aI2570
aI2571
aI2652
aI2651
aI2653
aI2654
aI2655
aI2656
aI2737
aI2736
aI2738
aI2739
aI2740
aI2821
aI2820
aI2822
aI2823
aI2824
aI2905
aI2904
aI2492
aI2491
aI2493
aI2574
aI2573
aI2575
aI2576
aI2657
aI2741
aI2742
aI2825
aI2724
aI2646
aI2647
aI2490
aI2489
asI3159
(lp1284
I2568
aI2567
aI2569
aI2570
aI2571
aI2572
aI2573
aI2574
aI2575
aI2576
aI2577
aI2578
aI2487
aI2660
aI2661
aI2742
aI2741
aI2823
aI2822
aI2904
aI2903
aI2905
aI2986
aI2985
aI3067
aI3066
aI3148
aI3147
aI3149
aI3230
aI3229
aI3311
aI3310
aI3312
aI3393
aI3392
aI3474
aI3473
aI3555
aI3556
aI3637
aI3719
aI2906
aI2987
aI3068
aI3069
aI3150
aI3231
aI3394
aI3475
aI2652
aI2651
aI2653
aI2654
aI2655
aI2656
aI2737
aI2736
aI2738
aI2739
aI2740
aI2821
aI2820
aI2824
asI3160
(lp1285
I2660
aI2661
aI2742
aI2741
aI2823
aI2822
aI2824
aI2905
aI2904
aI2986
aI2985
aI2987
aI3068
aI3067
aI3149
aI3148
aI3150
aI3231
aI3230
aI3312
aI3311
aI3232
aI3313
aI3394
aI3393
aI3475
aI3474
aI3556
aI3555
aI3557
aI3638
aI3637
aI3719
aI2903
aI3066
aI3147
aI3229
aI3310
aI3392
aI3473
asI3161
(lp1286
I3475
aI3474
aI3556
aI3555
aI3557
aI3638
aI3637
aI3719
aI3394
asI3162
(lp1287
sI3163
(lp1288
sI3164
(lp1289
sI3165
(lp1290
sI3166
(lp1291
sI3167
(lp1292
sI3168
(lp1293
sI3169
(lp1294
sI3170
(lp1295
sI3171
(lp1296
sI3172
(lp1297
sI3173
(lp1298
sI3174
(lp1299
sI3175
(lp1300
sI3176
(lp1301
sI3177
(lp1302
sI3181
(lp1303
sI3182
(lp1304
sI3227
(lp1305
I1603
aI1604
aI1605
aI1606
aI1682
aI1607
aI1608
aI1609
aI1610
aI1611
aI1612
aI1613
aI1683
asI3228
(lp1306
I1607
aI1606
aI1608
aI1609
aI1610
aI1611
aI1612
aI1613
aI1694
aI1693
aI1695
aI1696
aI1777
aI1776
aI1778
aI1779
aI1860
aI1859
aI1861
asI3229
(lp1307
I1613
aI1612
aI1694
aI1693
aI1695
aI1696
aI1777
aI1776
aI1778
aI1779
aI1860
aI1859
aI1861
aI1942
aI1941
aI2024
aI2023
aI2105
aI2104
aI2106
aI2187
aI2186
aI2268
aI2267
aI2269
aI2350
aI2349
asI3230
(lp1308
I1860
aI1859
aI1861
aI1942
aI1941
aI2024
aI2023
aI2105
aI2104
aI2106
aI2187
aI2186
aI1779
aI2268
aI2269
aI2350
aI2349
aI2432
aI2431
aI2513
aI2512
aI2594
aI2593
aI2595
aI2676
aI2675
aI2757
aI2756
aI2838
aI2837
aI2839
aI2920
aI2919
aI3000
aI2267
asI3231
(lp1309
I2269
aI2268
aI2350
aI2349
aI2432
aI2431
aI2513
aI2512
aI2594
aI2593
aI2595
aI2676
aI2675
aI2757
aI2756
aI2838
aI2837
aI2839
aI2920
aI2919
aI3001
aI3000
aI3002
aI3083
aI3082
aI3164
aI3163
aI3245
aI3244
aI3246
aI3327
aI3326
aI3408
aI3407
aI3409
aI3490
aI3489
aI3081
asI3232
(lp1310
I2839
aI2838
aI2920
aI2919
aI3001
aI3000
aI3082
aI3081
aI3083
aI3164
aI3163
aI3245
aI3244
aI3246
aI3327
aI3326
aI3408
aI3407
aI3409
aI3490
aI3489
aI3491
aI3572
aI3571
aI3573
aI3574
aI3655
aI3654
aI3656
aI3657
aI3738
aI3737
aI3739
aI3570
aI3653
aI3736
aI3002
asI3233
(lp1311
I3409
aI3408
aI3490
aI3489
aI3491
aI3572
aI3571
aI3573
aI3654
aI3653
aI3655
aI3656
aI3737
aI3736
aI3738
aI3739
aI3740
aI3661
aI3660
aI3662
aI3663
aI3664
aI3665
aI3666
aI3741
aI3742
aI3574
aI3657
asI3234
(lp1312
I3738
aI3737
aI3739
aI3740
aI3741
aI3742
aI3663
aI3662
aI3664
aI3665
aI3666
aI3661
aI3660
asI3236
(lp1313
I2721
aI2720
aI2722
aI2723
aI2724
aI2725
aI2646
aI2645
aI2647
aI2648
aI2649
aI2650
aI2571
aI2570
aI2572
aI2573
aI2574
aI2575
aI2495
aI2644
aI2643
aI2567
aI2566
aI2568
aI2569
aI2642
asI3237
(lp1314
I2721
aI2720
aI2722
aI2723
aI2644
aI2643
aI2645
aI2646
aI2567
aI2566
aI2568
aI2569
aI2490
aI2489
aI2491
aI2492
aI2573
aI2572
aI2574
aI2655
aI2654
aI2656
aI2657
aI2738
aI2737
aI2739
aI2820
aI2819
aI2821
aI2902
aI2901
aI2903
aI2984
aI2983
aI2985
aI2986
aI3067
aI3066
aI3068
aI3149
aI3148
aI3150
aI3231
aI3230
aI2495
aI2577
aI2576
aI2740
aI2741
aI2822
aI2823
aI2904
aI2905
aI2987
aI2724
aI2725
aI2647
aI2648
aI2649
aI2650
aI2571
aI2570
aI2575
asI3238
(lp1315
I2492
aI2491
aI2493
aI2574
aI2573
aI2575
aI2576
aI2657
aI2656
aI2740
aI2739
aI2741
aI2742
aI2823
aI2822
aI2824
aI2825
aI2905
aI2906
aI2987
aI2986
aI3068
aI3067
aI3069
aI3150
aI3149
aI3231
aI3230
aI3312
aI3311
aI3393
aI3392
aI3474
aI3473
aI3475
aI3556
aI3555
aI3637
aI3232
aI3313
aI3394
aI3719
aI2572
aI2655
aI2654
aI2738
aI2737
aI2820
aI2819
aI2821
aI2902
aI2901
aI2903
aI2984
aI2983
aI2985
aI3066
aI3148
asI3239
(lp1316
I2906
aI2905
aI2987
aI2986
aI3068
aI3067
aI3069
aI3150
aI3149
aI3231
aI3230
aI3312
aI3311
aI3393
aI3392
aI3394
aI3475
aI3474
aI3556
aI3555
aI3637
aI3719
aI3473
asI3240
(lp1317
sI3241
(lp1318
sI3242
(lp1319
sI3243
(lp1320
sI3244
(lp1321
sI3245
(lp1322
sI3246
(lp1323
sI3247
(lp1324
sI3248
(lp1325
sI3249
(lp1326
sI3250
(lp1327
sI3260
(lp1328
sI3261
(lp1329
sI3262
(lp1330
sI3309
(lp1331
I1942
aI1941
aI2024
aI2023
aI2105
aI2104
aI2106
aI2187
aI2186
aI2269
aI2268
aI2350
aI2349
aI1861
aI2432
aI2431
aI2513
aI2512
aI2594
aI2593
aI2595
aI2676
aI2675
aI2757
aI2756
aI2838
aI2837
aI2839
aI2920
aI2919
aI3001
aI3000
aI3082
aI3081
aI2267
aI2430
asI3310
(lp1332
I2350
aI2432
aI2431
aI2513
aI2512
aI2594
aI2593
aI2595
aI2676
aI2675
aI2757
aI2756
aI2838
aI2837
aI2839
aI2920
aI2919
aI3000
aI3001
aI3082
aI3081
aI3083
aI3164
aI3163
aI3245
aI3244
aI3246
aI3327
aI3326
aI3328
aI3409
aI3408
aI3490
aI3489
aI3491
aI3572
aI3571
aI3407
asI3311
(lp1333
I3001
aI3000
aI3082
aI3081
aI3083
aI3164
aI3163
aI3245
aI3244
aI3246
aI3327
aI3326
aI3408
aI3407
aI3409
aI3490
aI3489
aI3571
aI3570
aI3572
aI3573
aI3574
aI3655
aI3654
aI3656
aI3657
aI3738
aI3737
aI3739
aI3740
aI3653
aI3652
aI3328
aI3491
asI3312
(lp1334
I3571
aI3570
aI3572
aI3573
aI3654
aI3653
aI3655
aI3656
aI3737
aI3736
aI3738
aI3739
aI3490
aI3740
aI3741
aI3662
aI3661
aI3663
aI3664
aI3665
aI3742
aI3743
aI3574
aI3657
asI3313
(lp1335
I3740
aI3739
aI3741
aI3742
aI3663
aI3662
aI3664
aI3665
aI3666
aI3661
asI3314
(lp1336
I3666
aI2722
aI2721
aI2723
aI2644
aI2643
aI2565
aI2564
aI2566
asI3315
(lp1337
I2721
aI2720
aI2722
aI2643
aI2642
aI2644
aI2645
aI2646
aI2647
aI2648
aI2649
aI2650
aI2651
aI2652
aI2653
aI2654
aI2655
aI2656
aI2657
aI2660
aI2567
aI2566
aI2568
aI2569
aI2570
aI2571
aI2572
aI2573
aI2574
aI2580
aI2723
aI2565
aI2564
asI3316
(lp1338
I2644
aI2643
aI2645
aI2646
aI2567
aI2566
aI2568
aI2569
aI2570
aI2571
aI2572
aI2573
aI2574
aI2575
aI2495
aI2576
aI2577
aI2657
aI2740
aI2739
aI2821
aI2820
aI2822
aI2903
aI2902
aI2904
aI2985
aI2984
aI3066
aI3065
aI3067
aI3148
aI3147
aI3229
aI3228
aI3230
aI3311
aI3310
aI3312
aI3393
aI3392
aI3474
aI3473
aI3475
aI3556
aI3555
aI3637
aI2661
aI2660
aI2742
aI2741
aI2823
aI2824
aI2905
aI2986
aI2987
aI3068
aI3149
aI3231
aI3394
aI2647
aI2648
aI2649
aI2650
aI2651
aI2652
aI2653
aI2654
aI2655
aI2656
asI3317
(lp1339
I2495
aI2577
aI2576
aI2657
aI2740
aI2739
aI2741
aI2822
aI2821
aI2823
aI2904
aI2903
aI2905
aI2986
aI2985
aI2987
aI3068
aI3067
aI3149
aI3148
aI3150
aI3231
aI3230
aI3232
aI3313
aI3312
aI3394
aI3393
aI3475
aI3474
aI3556
aI3555
aI3637
aI3719
aI3638
aI2575
aI2820
aI2902
aI2984
aI3066
aI3065
aI3147
aI3229
aI3228
aI3311
aI3310
aI3392
aI3473
asI3318
(lp1340
I3232
aI3231
aI3313
aI3312
aI3394
aI3393
aI3475
aI3474
aI3556
aI3555
aI3637
aI3719
asI3319
(lp1341
sI3320
(lp1342
sI3321
(lp1343
sI3322
(lp1344
sI3323
(lp1345
sI3324
(lp1346
sI3325
(lp1347
sI3326
(lp1348
sI3327
(lp1349
sI3328
(lp1350
sI3329
(lp1351
sI3330
(lp1352
sI3331
(lp1353
sI3337
(lp1354
sI3338
(lp1355
sI3339
(lp1356
sI3340
(lp1357
sI3341
(lp1358
I3966
asI3391
(lp1359
I3653
aI3652
aI3654
aI3655
aI3656
aI3657
aI3738
aI3737
aI3739
aI3740
aI3572
aI3741
aI3742
aI3663
aI3662
aI3664
aI3665
aI3743
aI3573
aI3658
asI3392
(lp1360
I3741
aI3740
aI3742
aI3743
aI3664
aI3663
aI3665
aI3662
asI3393
(lp1361
I2723
aI2722
aI2724
aI2645
aI2644
aI2646
aI2567
aI2566
aI2568
aI2489
aI2488
aI2721
asI3394
(lp1362
I2722
aI2721
aI2723
aI2644
aI2643
aI2565
aI2564
aI2566
aI2567
aI2568
aI2569
aI2650
aI2649
aI2651
aI2652
aI2653
aI2654
aI2735
aI2734
aI2736
aI2737
aI2738
aI2739
aI2820
aI2819
aI2821
aI2822
aI2823
aI2824
aI2905
aI2904
aI2490
aI2489
aI2571
aI2570
aI2572
aI2573
aI2574
aI2655
aI2656
aI2657
aI2740
aI2741
aI2724
aI2645
aI2646
aI2488
asI3395
(lp1363
I2567
aI2566
aI2568
aI2569
aI2570
aI2571
aI2572
aI2573
aI2574
aI2655
aI2654
aI2656
aI2657
aI2660
aI2580
aI2661
aI2742
aI2741
aI2823
aI2822
aI2904
aI2903
aI2905
aI2986
aI2985
aI3067
aI3066
aI3148
aI3147
aI3149
aI3230
aI3229
aI3311
aI3310
aI3392
aI3391
aI3393
aI3474
aI3473
aI3555
aI3637
aI2906
aI2987
aI3068
aI3069
aI3150
aI3231
aI3312
aI3475
aI3556
aI2650
aI2649
aI2651
aI2652
aI2653
aI2735
aI2734
aI2736
aI2737
aI2738
aI2739
aI2820
aI2819
aI2821
aI2824
asI3396
(lp1364
I2661
aI2660
aI2742
aI2741
aI2823
aI2822
aI2824
aI2905
aI2904
aI2986
aI2985
aI2987
aI3068
aI3067
aI3149
aI3148
aI3230
aI3229
aI3231
aI3312
aI3311
aI3393
aI3392
aI3394
aI3475
aI3474
aI3556
aI3555
aI3637
aI3638
aI3719
aI2903
aI3066
aI3147
aI3310
aI3391
aI3473
asI3397
(lp1365
I3638
aI3637
aI3719
asI3398
(lp1366
sI3399
(lp1367
sI3400
(lp1368
sI3401
(lp1369
sI3402
(lp1370
sI3403
(lp1371
sI3404
(lp1372
sI3405
(lp1373
sI3406
(lp1374
sI3407
(lp1375
sI3408
(lp1376
sI3409
(lp1377
sI3410
(lp1378
sI3411
(lp1379
sI3412
(lp1380
sI3417
(lp1381
sI3418
(lp1382
I3966
asI3419
(lp1383
I3884
aI3885
asI3420
(lp1384
I3884
aI3883
aI3803
aI3804
asI3421
(lp1385
I3966
aI3803
aI3802
aI3884
aI3883
aI3722
aI3723
asI3473
(lp1386
I2722
aI2721
aI2723
aI2724
aI2645
aI2644
aI2646
aI2567
aI2566
aI2568
aI2489
aI2488
aI2490
aI2571
aI2570
aI2572
aI2573
aI2654
aI2653
aI2655
aI2736
aI2735
aI2737
aI2738
aI2819
aI2818
aI2820
aI2821
aI2902
aI2901
aI2903
aI2984
aI2983
aI2985
aI2986
aI3067
aI3066
aI3068
aI3149
aI3148
aI3150
aI2494
aI2493
aI2575
aI2574
aI2576
aI2657
aI2656
aI2739
aI2740
aI2822
aI2904
aI2987
aI3069
aI2725
aI2647
aI2648
aI2569
aI2492
aI2491
asI3474
(lp1387
I2490
aI2489
aI2571
aI2570
aI2572
aI2573
aI2574
aI2655
aI2654
aI2656
aI2657
aI2738
aI2737
aI2739
aI2740
aI2741
aI2822
aI2821
aI2823
aI2824
aI2905
aI2904
aI2906
aI2987
aI2986
aI3068
aI3067
aI3149
aI3148
aI3150
aI3231
aI3230
aI3312
aI3311
aI3393
aI3392
aI3474
aI3473
aI3555
aI3556
aI3637
aI3232
aI3313
aI3394
aI3475
aI2653
aI2736
aI2735
aI2819
aI2818
aI2820
aI2902
aI2901
aI2903
aI2984
aI2983
aI2985
aI3066
asI3475
(lp1388
I2906
aI2905
aI2987
aI2986
aI3068
aI3067
aI3069
aI3150
aI3149
aI3231
aI3230
aI3312
aI3311
aI3393
aI3392
aI3474
aI3473
aI3475
aI3556
aI3555
aI3637
aI3148
asI3476
(lp1389
sI3477
(lp1390
sI3478
(lp1391
sI3479
(lp1392
sI3480
(lp1393
sI3481
(lp1394
sI3482
(lp1395
sI3483
(lp1396
sI3484
(lp1397
sI3485
(lp1398
sI3486
(lp1399
sI3487
(lp1400
sI3488
(lp1401
sI3489
(lp1402
sI3490
(lp1403
sI3491
(lp1404
sI3492
(lp1405
sI3493
(lp1406
sI3494
(lp1407
sI3496
(lp1408
I3885
aI3884
aI3966
asI3497
(lp1409
I3884
aI3883
aI3885
aI3966
aI3803
aI3804
asI3498
(lp1410
I3966
aI3722
aI3721
aI3803
aI3802
aI3884
aI3883
aI3641
aI3885
asI3499
(lp1411
I3884
aI3885
aI3641
aI3640
aI3722
aI3721
aI3803
aI3802
aI3883
aI3560
aI3561
asI3500
(lp1412
I3884
aI3883
aI3803
aI3804
aI3560
aI3559
aI3641
aI3640
aI3722
aI3721
aI3802
aI3479
aI3480
asI3501
(lp1413
I3803
aI3802
aI3722
aI3723
aI3479
aI3478
aI3560
aI3559
aI3641
aI3640
aI3721
aI3398
aI3399
asI3502
(lp1414
I3722
aI3721
aI3641
aI3642
aI3398
aI3397
aI3479
aI3478
aI3560
aI3559
aI3640
aI3317
aI3318
asI3555
(lp1415
sI3556
(lp1416
sI3557
(lp1417
sI3558
(lp1418
sI3559
(lp1419
sI3560
(lp1420
sI3561
(lp1421
sI3562
(lp1422
sI3563
(lp1423
sI3564
(lp1424
sI3565
(lp1425
sI3566
(lp1426
sI3567
(lp1427
sI3568
(lp1428
sI3569
(lp1429
sI3570
(lp1430
sI3571
(lp1431
sI3572
(lp1432
sI3573
(lp1433
I3966
aI3967
asI3574
(lp1434
I3804
aI3803
aI3885
aI3884
aI3966
asI3575
(lp1435
I3966
aI3967
aI3723
aI3722
aI3804
aI3803
aI3885
aI3884
asI3577
(lp1436
I3804
aI3803
aI3884
aI3560
aI3559
aI3641
aI3640
aI3722
aI3721
aI3802
aI3479
aI3480
aI3561
aI3642
aI3723
asI3578
(lp1437
I3722
aI3721
aI3803
aI3802
aI3641
aI3479
aI3478
aI3560
aI3559
aI3640
aI3398
aI3399
asI3579
(lp1438
I3641
aI3640
aI3560
aI3561
aI3398
aI3397
aI3479
aI3478
aI3559
aI3317
aI3318
asI3580
(lp1439
I3560
aI3559
aI3479
aI3480
aI3236
aI3317
aI3316
aI3398
aI3397
aI3478
aI3237
asI3581
(lp1440
I3479
aI3478
aI3398
aI3399
aI3155
aI3236
aI3317
aI3316
aI3397
asI3582
(lp1441
I3398
aI3397
aI3317
aI3318
aI3074
aI3073
aI3155
aI3236
aI3316
asI3583
(lp1442
I3317
aI3316
aI3236
aI3237
aI2993
aI2992
aI3074
aI3073
aI3155
asI3584
(lp1443
I3236
aI2912
aI2911
aI2993
aI2992
aI3074
aI3073
aI3155
asI3637
(lp1444
sI3638
(lp1445
sI3639
(lp1446
sI3640
(lp1447
sI3641
(lp1448
sI3642
(lp1449
sI3643
(lp1450
sI3644
(lp1451
sI3645
(lp1452
sI3646
(lp1453
sI3647
(lp1454
sI3648
(lp1455
sI3649
(lp1456
sI3650
(lp1457
sI3651
(lp1458
I3966
aI3885
asI3652
(lp1459
I3804
aI3803
aI3885
aI3884
aI3966
aI3805
asI3653
(lp1460
I3966
aI3967
aI3642
aI3641
aI3723
aI3722
aI3804
aI3803
aI3885
aI3884
asI3654
(lp1461
I3804
aI3803
aI3885
aI3884
aI3561
aI3560
aI3642
aI3641
aI3723
aI3722
asI3655
(lp1462
I3723
aI3722
aI3803
aI3399
aI3398
aI3480
aI3479
aI3561
aI3560
aI3642
aI3641
asI3656
(lp1463
I3561
aI3560
aI3642
aI3641
aI3722
aI3318
aI3317
aI3399
aI3398
aI3480
aI3479
asI3657
(lp1464
I3480
aI3479
aI3560
aI3317
aI3316
aI3398
aI3397
aI3478
aI3236
aI3237
aI3318
aI3399
asI3658
(lp1465
I3479
aI3478
aI3398
aI3399
aI3155
aI3236
aI3317
aI3316
aI3397
aI3156
asI3659
(lp1466
I3398
aI3397
aI3317
aI3318
aI3074
aI3073
aI3155
aI3236
aI3316
asI3660
(lp1467
I3236
aI3317
aI3316
aI3237
aI2993
aI2992
aI3074
aI3073
aI3155
asI3661
(lp1468
I3155
aI2912
aI2911
aI2993
aI2992
aI3074
aI3073
asI3662
(lp1469
I3074
aI3073
aI2912
aI2911
aI2993
aI2992
asI3663
(lp1470
I2993
aI2992
aI3073
aI2829
aI2912
aI2911
aI2750
asI3664
(lp1471
I2912
aI2911
aI2992
aI2829
aI2910
asI3665
(lp1472
I2911
aI2668
aI2667
aI2829
aI2910
asI3666
(lp1473
I2911
aI2910
aI2587
aI2586
aI2668
aI2667
aI2829
asI3684
(lp1474
I1928
aI1927
aI1926
aI1925
asI3685
(lp1475
I1926
aI1925
aI1927
aI1924
asI3686
(lp1476
I1925
aI1924
aI1923
asI3719
(lp1477
sI3720
(lp1478
sI3721
(lp1479
sI3722
(lp1480
sI3723
(lp1481
sI3724
(lp1482
sI3725
(lp1483
sI3726
(lp1484
sI3727
(lp1485
sI3728
(lp1486
sI3729
(lp1487
I3966
asI3730
(lp1488
I3804
aI3803
aI3885
aI3884
aI3966
asI3731
(lp1489
I3966
aI3885
aI3723
aI3722
aI3804
aI3803
aI3884
aI3642
asI3732
(lp1490
I3804
aI3803
aI3885
aI3884
aI3805
aI3561
aI3560
aI3642
aI3641
aI3723
aI3722
aI3480
asI3733
(lp1491
I3642
aI3641
aI3723
aI3722
aI3803
aI3399
aI3398
aI3480
aI3479
aI3561
aI3560
aI3400
asI3734
(lp1492
I3561
aI3560
aI3641
aI3318
aI3317
aI3399
aI3398
aI3480
aI3479
asI3735
(lp1493
I3399
aI3398
aI3480
aI3479
aI3560
aI3156
aI3155
aI3237
aI3236
aI3318
aI3317
asI3736
(lp1494
I3318
aI3317
aI3398
aI3155
aI3236
aI3237
aI3074
aI3075
aI3156
asI3737
(lp1495
I3317
aI3316
aI3236
aI3237
aI3074
aI3073
aI3155
aI2993
aI2994
asI3738
(lp1496
I3155
aI3236
aI3156
aI2912
aI2911
aI2993
aI2992
aI3074
aI3073
aI2913
asI3739
(lp1497
I3074
aI3073
aI2912
aI2911
aI2993
aI2992
asI3740
(lp1498
I2993
aI2992
aI3073
aI2750
aI2912
aI2911
asI3741
(lp1499
I2912
aI2911
aI2992
aI2750
aI2668
aI2669
asI3742
(lp1500
I2911
aI2668
aI2667
aI2829
aI2587
aI2588
aI2750
asI3743
(lp1501
I2829
aI2750
aI2587
aI2586
aI2668
aI2667
asI3744
(lp1502
I2506
aI2587
aI2586
aI2668
aI2667
asI3745
(lp1503
I2668
aI2667
aI2506
aI2587
aI2586
aI2424
aI2425
asI3746
(lp1504
I2587
aI2586
aI2667
aI2424
aI2423
aI2585
aI2506
asI3747
(lp1505
I2586
aI2585
aI2343
aI2342
aI2424
aI2423
asI3748
(lp1506
I2585
aI2423
aI2422
aI2424
aI2342
aI2343
asI3760
(lp1507
I1930
aI1929
aI1928
asI3761
(lp1508
I1929
aI1928
aI1927
asI3762
(lp1509
I1928
aI1927
aI1926
asI3763
(lp1510
I1927
aI1926
aI1925
asI3764
(lp1511
I1926
aI1925
aI1924
asI3765
(lp1512
I1925
aI1924
aI1923
asI3766
(lp1513
I1924
aI1923
aI1922
asI3767
(lp1514
I1923
aI1922
aI1921
asI3768
(lp1515
I1922
aI1921
aI1841
asI3769
(lp1516
I1921
aI1920
aI1840
aI1841
asI3770
(lp1517
I1920
aI1840
asI3771
(lp1518
I1920
aI1999
aI1840
aI1919
asI3801
(lp1519
sI3802
(lp1520
sI3803
(lp1521
sI3804
(lp1522
sI3805
(lp1523
sI3806
(lp1524
sI3807
(lp1525
I3966
asI3808
(lp1526
I3885
aI3884
aI3966
aI3804
asI3809
(lp1527
I3966
aI3723
aI3722
aI3804
aI3803
aI3885
aI3884
aI3642
asI3810
(lp1528
I3804
aI3803
aI3885
aI3884
aI3561
aI3560
aI3642
aI3641
aI3723
aI3722
aI3562
asI3811
(lp1529
I3723
aI3722
aI3642
aI3803
aI3399
aI3398
aI3480
aI3479
aI3561
aI3560
aI3641
asI3812
(lp1530
I3561
aI3560
aI3642
aI3641
aI3480
aI3318
aI3317
aI3399
aI3398
aI3479
aI3237
asI3813
(lp1531
I3399
aI3398
aI3480
aI3479
aI3400
aI3156
aI3155
aI3237
aI3236
aI3318
aI3317
aI3157
asI3814
(lp1532
I3318
aI3317
aI3398
aI3075
aI3074
aI3156
aI3155
aI3237
aI3236
asI3815
(lp1533
I3156
aI3155
aI3237
aI3236
aI3317
aI2993
aI2992
aI2994
aI3075
aI3074
aI2912
asI3816
(lp1534
I3075
aI3074
aI3155
aI2912
aI2911
aI2993
aI2992
aI3073
aI2832
aI2994
asI3817
(lp1535
I3074
aI3073
aI2993
aI2994
aI2912
aI2911
aI2992
aI2750
aI2751
asI3818
(lp1536
I2912
aI2911
aI2993
aI2992
aI2913
aI2750
aI2669
aI2670
asI3819
(lp1537
I2911
aI2669
aI2668
aI2750
asI3820
(lp1538
I2750
aI2668
aI2667
aI2669
aI2587
aI2588
asI3821
(lp1539
I2669
aI2668
aI2506
aI2587
aI2586
aI2667
aI2507
asI3822
(lp1540
I2668
aI2667
aI2587
aI2588
aI2425
aI2424
aI2506
aI2586
asI3823
(lp1541
I2587
aI2586
aI2425
aI2424
aI2506
asI3824
(lp1542
I2506
aI2586
aI2424
aI2423
aI2343
aI2344
aI2425
asI3825
(lp1543
I2424
aI2425
aI2343
aI2342
aI2423
aI2344
asI3826
(lp1544
I2424
aI2423
aI2342
aI2341
aI2343
aI2261
aI2262
aI2344
asI3827
(lp1545
I2343
aI2342
aI2423
aI2261
aI2260
aI2341
aI2262
asI3828
(lp1546
I2342
aI2260
aI2259
aI2261
aI2341
aI2179
aI2180
aI2262
asI3829
(lp1547
I2342
aI2341
aI2261
aI2262
aI2179
aI2178
aI2260
aI2259
aI2181
asI3830
(lp1548
I2261
aI2260
aI2178
aI2177
aI2179
aI2259
aI2097
aI2098
aI2181
asI3831
(lp1549
I2260
aI2259
aI2179
aI2180
aI2097
aI2178
aI2177
aI2099
asI3832
(lp1550
I2179
aI2178
aI2097
aI2177
aI2098
aI2099
asI3836
(lp1551
I2014
aI2015
asI3837
(lp1552
I2014
aI1931
aI1933
aI1932
asI3838
(lp1553
I1931
aI1930
aI1932
aI1933
asI3839
(lp1554
I1930
aI1929
aI1931
aI1932
asI3840
(lp1555
I1929
aI1928
aI1927
aI1926
asI3841
(lp1556
I1928
aI1927
aI1846
aI1845
aI1926
asI3842
(lp1557
I1927
aI1926
aI1925
aI1845
aI1846
asI3843
(lp1558
I1926
aI1925
aI1924
aI1844
aI1845
asI3844
(lp1559
I1925
aI1924
aI1923
aI1843
aI1844
asI3845
(lp1560
I1924
aI1923
aI1843
aI1842
asI3846
(lp1561
I1923
aI1922
aI1842
aI1843
asI3847
(lp1562
I1922
aI1921
aI1841
aI1842
asI3848
(lp1563
I1921
aI1841
asI3849
(lp1564
I1841
aI1840
asI3850
(lp1565
I1840
aI1841
aI1761
asI3851
(lp1566
I1840
aI1841
aI1762
aI1761
asI3852
(lp1567
I1761
aI1760
aI1840
aI1762
aI1763
aI1683
aI1841
asI3883
(lp1568
sI3884
(lp1569
sI3885
(lp1570
I4048
asI3886
(lp1571
I3966
aI3885
aI4048
asI3887
(lp1572
I3966
aI3804
aI3803
aI3885
aI3884
aI3723
asI3888
(lp1573
I3885
aI3884
aI3966
aI3804
aI3642
aI3641
aI3723
aI3722
aI3803
aI3561
asI3889
(lp1574
I3723
aI3722
aI3804
aI3803
aI3642
aI3480
aI3479
aI3561
aI3560
aI3641
aI3399
asI3890
(lp1575
I3561
aI3560
aI3642
aI3641
aI3562
aI3318
aI3317
aI3399
aI3398
aI3480
aI3479
aI3319
asI3891
(lp1576
I3399
aI3398
aI3480
aI3479
aI3560
aI3237
aI3236
aI3318
aI3317
aI3156
asI3892
(lp1577
I3318
aI3317
aI3237
aI3398
aI3075
aI3074
aI3156
aI3155
aI3236
aI3076
asI3893
(lp1578
I3156
aI3155
aI3237
aI3236
aI3157
aI2994
aI2993
aI3075
aI3074
aI2913
asI3894
(lp1579
I3075
aI3074
aI3155
aI2832
aI2913
aI2912
aI2994
aI2993
aI2833
asI3895
(lp1580
I2993
aI2992
aI2994
aI2912
aI3074
aI2911
aI2750
aI2751
aI2832
aI2913
asI3896
(lp1581
I2912
aI2911
aI2832
aI2750
aI2669
aI2670
asI3897
(lp1582
I2750
aI2751
aI2669
aI2668
aI2588
aI2589
asI3898
(lp1583
I2750
aI2669
aI2670
aI2507
aI2506
aI2588
aI2587
aI2668
aI2508
asI3899
(lp1584
I2669
aI2668
aI2506
aI2587
aI2586
aI2588
aI2507
asI3900
(lp1585
I2588
aI2587
aI2668
aI2425
aI2424
aI2506
aI2586
asI3901
(lp1586
I2506
aI2587
aI2586
aI2507
aI2344
aI2343
aI2425
aI2424
asI3902
(lp1587
I2425
aI2424
aI2343
aI2342
aI2423
aI2344
asI3903
(lp1588
I2424
aI2262
aI2261
aI2343
aI2342
aI2423
aI2344
asI3904
(lp1589
I2424
aI2423
aI2343
aI2344
aI2261
aI2260
aI2262
aI2342
aI2263
asI3905
(lp1590
I2343
aI2342
aI2261
aI2260
aI2262
aI2180
aI2263
asI3906
(lp1591
I2342
aI2341
aI2261
aI2262
aI2180
aI2179
aI2260
aI2181
asI3907
(lp1592
I2261
aI2260
aI2179
aI2178
aI2180
aI2098
aI2099
aI2181
asI3908
(lp1593
I2180
aI2179
aI2260
aI2098
aI2097
aI2178
aI2099
asI3909
(lp1594
I2179
aI2178
aI2097
aI2098
aI2099
asI3910
(lp1595
I2178
aI2177
aI2097
aI2098
aI2016
aI2015
aI2017
asI3911
(lp1596
I2097
aI2015
aI2014
aI2016
aI2017
asI3912
(lp1597
I2014
aI2015
aI2016
asI3913
(lp1598
I2015
aI2014
asI3914
(lp1599
I2015
aI2014
aI1932
aI1934
aI1933
asI3915
(lp1600
I2014
aI1932
aI1931
aI1933
aI1934
asI3916
(lp1601
I1931
aI1930
aI1932
aI1933
asI3917
(lp1602
I1931
aI1932
aI1930
aI1929
asI3918
(lp1603
I1931
aI1930
aI1929
aI1928
asI3919
(lp1604
I1930
aI1929
aI1928
aI1927
asI3920
(lp1605
I1927
aI1926
aI1846
aI1847
asI3921
(lp1606
I1846
aI1845
aI1926
asI3922
(lp1607
I1845
aI1844
asI3923
(lp1608
I1845
aI1844
asI3924
(lp1609
I1844
aI1843
asI3925
(lp1610
I1843
aI1842
asI3926
(lp1611
I1842
aI1843
asI3927
(lp1612
I1842
aI1841
aI1762
asI3928
(lp1613
I1841
aI1842
aI1762
asI3929
(lp1614
I1841
aI1762
aI1761
aI1763
aI1842
asI3930
(lp1615
I1841
aI1761
aI1762
aI1763
aI1684
aI1683
asI3931
(lp1616
I1762
aI1761
aI1763
aI1684
aI1683
aI1685
asI3932
(lp1617
I1763
aI1762
aI1683
aI1684
aI1685
aI1686
asI3933
(lp1618
I1684
aI1683
aI1685
aI1686
aI1687
aI1688
aI1609
aI1608
asI3966
(lp1619
I3966
aI3885
aI3723
aI3722
aI3804
aI3803
aI3884
aI3642
aI3724
aI3805
aI3886
aI3967
asI3967
(lp1620
I3804
aI3803
aI3885
aI3884
aI3723
aI3561
aI3560
aI3642
aI3641
aI3722
aI3480
asI3968
(lp1621
I3642
aI3641
aI3723
aI3722
aI3561
aI3399
aI3398
aI3480
aI3479
aI3560
aI3318
asI3969
(lp1622
I3480
aI3479
aI3561
aI3560
aI3399
aI3237
aI3236
aI3318
aI3317
aI3398
aI3238
asI3970
(lp1623
I3318
aI3317
aI3399
aI3398
aI3319
aI3156
aI3155
aI3237
aI3236
aI3075
asI3971
(lp1624
I3237
aI3236
aI3156
aI3317
aI2994
aI2993
aI3075
aI3074
aI3155
aI2995
asI3972
(lp1625
I3075
aI3074
aI3156
aI3155
aI3076
aI2913
aI2912
aI2994
aI2993
aI2832
asI3973
(lp1626
I2994
aI2993
aI2913
aI3074
aI2751
aI2750
aI2832
aI2912
aI2752
asI3974
(lp1627
I2832
aI2913
aI2912
aI2833
aI2750
aI2669
aI2670
aI2751
asI3975
(lp1628
I2750
aI2751
aI2669
aI2668
aI2588
aI2589
asI3976
(lp1629
I2750
aI2669
aI2670
aI2588
aI2587
aI2668
aI2507
aI2508
asI3977
(lp1630
I2669
aI2668
aI2588
aI2589
aI2507
aI2506
aI2587
aI2508
asI3978
(lp1631
I2507
aI2506
aI2588
aI2587
aI2508
aI2425
aI2424
aI2426
asI3979
(lp1632
I2506
aI2344
aI2343
aI2425
aI2424
aI2426
asI3980
(lp1633
I2425
aI2424
aI2343
aI2342
aI2344
aI2262
aI2263
asI3981
(lp1634
I2344
aI2343
aI2424
aI2342
aI2262
aI2263
asI3982
(lp1635
I2343
aI2342
aI2262
aI2261
aI2181
aI2182
aI2263
asI3983
(lp1636
I2262
aI2261
aI2342
aI2260
aI2180
aI2181
asI3984
(lp1637
I2261
aI2260
aI2180
aI2179
aI2099
aI2100
aI2181
asI3985
(lp1638
I2260
aI2180
aI2099
aI2098
aI2179
aI2100
asI3986
(lp1639
I2180
aI2179
aI2098
aI2097
aI2178
aI2099
aI2100
asI3987
(lp1640
I2179
aI2178
aI2098
aI2099
aI2097
aI2016
aI2018
aI2017
asI3988
(lp1641
I2098
aI2097
aI2016
aI2015
aI2017
aI2018
asI3989
(lp1642
I2097
aI2016
aI2015
aI2017
asI3990
(lp1643
I2016
aI2015
aI2014
asI3991
(lp1644
I2015
aI2014
aI1933
aI1934
asI3992
(lp1645
I2014
aI1933
aI1932
aI1934
asI3993
(lp1646
I1932
aI1931
aI1933
asI3994
(lp1647
I1932
aI1933
aI1931
aI1930
asI3995
(lp1648
I1932
aI1931
aI1930
asI3996
(lp1649
I1931
aI1930
aI1929
aI1849
aI1850
asI3997
(lp1650
I1930
aI1929
aI1928
aI1848
aI1849
aI1850
asI3998
(lp1651
I1929
aI1928
aI1848
aI1847
aI1849
asI3999
(lp1652
I1928
aI1927
aI1847
aI1846
aI1848
asI4000
(lp1653
I1846
aI1845
asI4001
(lp1654
I1846
aI1845
asI4002
(lp1655
I1845
aI1844
aI1764
asI4003
(lp1656
I1844
aI1764
asI4004
(lp1657
I1844
aI1843
aI1764
aI1763
asI4005
(lp1658
I1843
aI1764
aI1763
asI4006
(lp1659
I1843
aI1842
aI1763
aI1762
aI1764
asI4007
(lp1660
I1842
aI1762
aI1763
aI1764
asI4008
(lp1661
I1762
aI1763
aI1764
aI1685
aI1684
asI4009
(lp1662
I1763
aI1762
aI1764
aI1685
aI1684
asI4010
(lp1663
I1684
aI1683
aI1763
aI1685
aI1686
aI1687
aI1764
asI4011
(lp1664
I1685
aI1684
aI1686
aI1687
aI1688
aI1689
asI4012
(lp1665
I1686
aI1685
aI1687
aI1688
aI1689
aI1690
aI1691
asI4013
(lp1666
I1687
aI1686
aI1688
aI1609
aI1608
aI1690
aI1689
aI1691
aI1692
aI1693
aI1694
aI1695
asI4048
(lp1667
I3399
aI3398
aI3480
aI3479
aI3318
aI3237
aI3236
aI3317
aI3156
aI3157
asI4049
(lp1668
I3237
aI3236
aI3318
aI3317
aI3238
aI3075
aI3074
aI3156
aI3155
aI2994
asI4050
(lp1669
I3156
aI3155
aI3075
aI3236
aI2994
aI2993
aI3074
aI2913
aI2914
asI4051
(lp1670
I2994
aI2993
aI3075
aI3074
aI2995
aI2832
aI2913
aI2912
aI2833
asI4052
(lp1671
I2913
aI2912
aI2832
aI2993
aI2751
aI2750
aI2752
asI4053
(lp1672
I2751
aI2750
aI2832
aI2752
aI2670
aI2669
asI4054
(lp1673
I2750
aI2669
aI2670
aI2588
aI2587
aI2668
aI2589
asI4055
(lp1674
I2669
aI2668
aI2588
aI2589
aI2507
aI2506
aI2587
aI2508
asI4056
(lp1675
I2588
aI2587
aI2507
aI2508
aI2426
aI2425
aI2506
aI2427
asI4057
(lp1676
I2507
aI2506
aI2425
aI2424
aI2426
aI2344
aI2345
aI2427
asI4058
(lp1677
I2425
aI2424
aI2426
aI2506
aI2344
aI2343
asI4059
(lp1678
I2344
aI2343
aI2424
aI2263
aI2262
asI4060
(lp1679
I2343
aI2342
aI2262
aI2263
aI2261
aI2181
aI2182
asI4061
(lp1680
I2262
aI2181
aI2180
aI2261
aI2182
asI4062
(lp1681
I2262
aI2261
aI2181
aI2182
aI2180
aI2179
aI2099
aI2101
aI2100
asI4063
(lp1682
I2181
aI2180
aI2099
aI2098
aI2179
aI2100
aI2101
asI4064
(lp1683
I2180
aI2179
aI2099
aI2100
aI2098
asI4065
(lp1684
I2099
aI2098
aI2097
aI2017
aI2018
asI4066
(lp1685
I2098
aI2097
aI2017
aI2016
aI2018
asI4067
(lp1686
I2017
aI2016
aI2097
aI2015
asI4068
(lp1687
I2016
aI2015
aI1935
aI1934
asI4069
(lp1688
I2015
aI1934
aI1933
aI2014
aI1935
asI4070
(lp1689
I2015
aI2014
aI1934
aI1933
aI1935
asI4071
(lp1690
I1934
aI1933
aI2014
aI1932
asI4072
(lp1691
I1933
aI1932
aI1931
aI1851
aI1852
asI4073
(lp1692
I1932
aI1931
aI1851
aI1850
aI1852
asI4074
(lp1693
I1931
aI1930
aI1850
aI1851
asI4075
(lp1694
I1930
aI1929
aI1849
aI1850
asI4076
(lp1695
I1930
aI1929
aI1849
aI1850
aI1848
asI4077
(lp1696
I1849
aI1848
aI1847
asI4078
(lp1697
I1848
aI1847
asI4079
(lp1698
I1847
aI1846
asI4080
(lp1699
I1846
aI1845
aI1766
asI4081
(lp1700
I1845
aI1765
aI1766
aI1846
asI4082
(lp1701
I1845
aI1844
aI1764
aI1765
asI4083
(lp1702
I1764
aI1765
asI4084
(lp1703
I1764
aI1765
asI4085
(lp1704
I1764
aI1765
aI1685
asI4086
(lp1705
I1764
aI1765
aI1686
aI1685
asI4087
(lp1706
I1764
aI1685
aI1684
aI1686
aI1687
aI1765
asI4088
(lp1707
I1685
aI1684
aI1764
aI1686
aI1687
aI1688
asI4089
(lp1708
I1685
aI1686
aI1687
aI1688
aI1689
asI4090
(lp1709
I1686
aI1685
aI1687
aI1688
aI1689
aI1690
aI1691
aI1692
asI4091
(lp1710
I1688
aI1687
aI1689
aI1690
aI1691
aI1692
aI1693
aI1694
aI1695
asI4092
(lp1711
I1690
aI1689
aI1691
aI1692
aI1693
aI1694
aI1775
aI1774
aI1776
aI1777
aI1778
aI1858
aI1695
asI4093
(lp1712
I1692
aI1691
aI1693
aI1694
aI1695
aI1776
aI1775
aI1777
aI1858
aI1857
aI1859
aI1860
aI1941
aI1940
aI1942
aI2023
aI2022
aI1774
aI1778
asI4130
(lp1713
I2994
aI2993
aI2913
aI2914
aI2832
aI2912
aI2751
aI2752
asI4131
(lp1714
I2832
aI2913
aI2912
aI2833
aI2670
aI2669
aI2751
aI2750
aI2671
asI4132
(lp1715
I2751
aI2750
aI2589
aI2588
aI2670
aI2669
asI4133
(lp1716
I2670
aI2669
aI2750
aI2588
aI2587
aI2668
aI2507
aI2508
aI2589
asI4134
(lp1717
I2588
aI2587
aI2669
aI2668
aI2589
aI2507
aI2506
aI2426
aI2427
asI4135
(lp1718
I2507
aI2506
aI2587
aI2426
aI2425
asI4136
(lp1719
I2426
aI2425
aI2506
aI2345
aI2344
asI4137
(lp1720
I2425
aI2424
aI2344
aI2345
aI2343
aI2263
aI2264
asI4138
(lp1721
I2344
aI2343
aI2263
aI2262
aI2264
asI4139
(lp1722
I2263
aI2262
aI2343
aI2182
aI2181
asI4140
(lp1723
I2262
aI2261
aI2181
aI2182
aI2180
asI4141
(lp1724
I2181
aI2180
aI2100
aI2099
asI4142
(lp1725
I2180
aI2179
aI2099
aI2100
asI4143
(lp1726
I2099
aI2098
aI2018
aI2019
asI4144
(lp1727
I2098
aI2097
aI2017
aI2018
asI4145
(lp1728
I2098
aI2097
aI2017
aI2018
aI2016
asI4146
(lp1729
I2017
aI2016
aI2015
aI1935
aI1936
asI4147
(lp1730
I2016
aI2015
aI1935
aI1934
aI1936
asI4148
(lp1731
I1935
aI1934
aI2015
asI4149
(lp1732
I1934
aI1933
asI4150
(lp1733
I1933
aI1932
aI1852
aI1853
asI4151
(lp1734
I1933
aI1932
aI1852
aI1851
aI1853
asI4152
(lp1735
I1932
aI1931
aI1851
aI1852
asI4153
(lp1736
I1851
aI1850
asI4154
(lp1737
I1850
aI1849
asI4155
(lp1738
I1850
aI1849
asI4156
(lp1739
I1849
aI1848
asI4157
(lp1740
I1848
aI1847
aI1767
aI1768
asI4158
(lp1741
I1847
aI1767
asI4159
(lp1742
I1847
aI1846
aI1766
aI1767
asI4160
(lp1743
I1766
aI1767
asI4161
(lp1744
I1766
aI1765
aI1767
asI4162
(lp1745
I1765
aI1766
aI1767
aI1687
asI4163
(lp1746
I1765
aI1766
aI1687
aI1686
aI1767
asI4166
(lp1747
I1686
aI1685
aI1687
aI1688
aI1689
asI4167
(lp1748
I1687
aI1686
aI1688
aI1689
aI1690
aI1691
asI4168
(lp1749
I1688
aI1687
aI1689
aI1690
aI1691
aI1692
aI1693
asI4169
(lp1750
I1689
aI1688
aI1690
aI1691
aI1692
aI1693
aI1694
aI1695
aI1775
asI4170
(lp1751
I1690
aI1689
aI1691
aI1692
aI1693
aI1694
aI1775
aI1774
aI1776
aI1777
aI1778
aI1858
aI1695
asI4171
(lp1752
I1693
aI1692
aI1694
aI1695
aI1776
aI1775
aI1777
aI1858
aI1857
aI1859
aI1860
aI1941
aI1940
aI1942
aI2022
aI1774
aI1778
asI4172
(lp1753
I1776
aI1775
aI1777
aI1778
aI1695
aI1858
aI1859
aI1860
aI1941
aI1940
aI1942
aI2023
aI2022
aI2024
aI2105
aI2104
aI2186
aI2185
aI2187
aI2106
aI1857
asI4173
(lp1754
I1859
aI1858
aI1860
aI1941
aI1940
aI1942
aI2023
aI2022
aI2024
aI2105
aI2104
aI2186
aI2185
aI2187
aI2268
aI2267
aI2349
aI2348
aI2350
aI2431
aI2430
aI2512
aI2511
aI2513
aI2593
aI2269
asI4174
(lp1755
I2024
aI2023
aI2105
aI2104
aI2106
aI2187
aI2186
aI2268
aI2267
aI2269
aI2350
aI2349
aI2431
aI2430
aI2512
aI2511
aI2513
aI2594
aI2593
aI2675
aI2674
aI2756
aI2755
aI2757
aI2838
aI2837
aI2919
aI2918
aI3000
aI2999
aI2185
aI2348
asI4212
(lp1756
I2589
aI2588
aI2669
aI2508
aI2507
asI4213
(lp1757
I2508
aI2507
aI2588
aI2506
aI2426
aI2427
asI4214
(lp1758
I2507
aI2506
aI2426
aI2427
aI2425
aI2345
aI2346
asI4215
(lp1759
I2426
aI2425
aI2345
aI2344
aI2346
asI4216
(lp1760
I2345
aI2344
aI2425
aI2264
aI2263
asI4217
(lp1761
I2344
aI2343
aI2263
aI2264
asI4218
(lp1762
I2263
aI2262
aI2182
aI2183
asI4219
(lp1763
I2182
aI2181
aI2262
asI4220
(lp1764
I2181
aI2180
aI2100
aI2101
asI4221
(lp1765
I2100
aI2099
aI2180
asI4222
(lp1766
I2099
aI2098
aI2018
aI2019
asI4223
(lp1767
I2099
aI2098
aI2018
aI2019
asI4224
(lp1768
I2018
aI2017
asI4225
(lp1769
I2017
aI2016
aI1936
asI4226
(lp1770
I1936
aI1935
aI2016
asI4227
(lp1771
I1935
aI1934
asI4228
(lp1772
I1934
aI1854
asI4229
(lp1773
I1934
aI1933
aI1853
aI1854
asI4230
(lp1774
I1853
aI1852
aI1933
asI4231
(lp1775
I1852
aI1851
asI4232
(lp1776
I1851
aI1852
asI4233
(lp1777
I1851
aI1850
asI4234
(lp1778
I1850
aI1849
aI1770
asI4235
(lp1779
I1849
aI1769
aI1770
aI1850
asI4236
(lp1780
I1849
aI1848
aI1769
aI1768
asI4237
(lp1781
I1768
aI1767
aI1848
aI1769
aI1849
asI4238
(lp1782
I1767
aI1768
asI4239
(lp1783
I1767
aI1766
aI1768
asI4240
(lp1784
I1767
aI1768
aI1689
aI1688
aI1769
asI4241
(lp1785
I1767
aI1688
aI1687
aI1689
aI1768
asI4242
(lp1786
I1767
aI1687
aI1688
aI1689
aI1690
asI4243
(lp1787
I1687
aI1688
aI1689
aI1690
asI4244
(lp1788
I1688
aI1687
aI1689
aI1690
aI1691
asI4245
(lp1789
I1688
aI1689
aI1690
aI1691
aI1692
asI4246
(lp1790
I1689
aI1688
aI1690
aI1691
aI1692
aI1693
aI1694
asI4247
(lp1791
I1690
aI1689
aI1691
aI1692
aI1693
aI1694
aI1775
aI1774
aI1776
asI4248
(lp1792
I1692
aI1691
aI1693
aI1694
aI1775
aI1774
aI1776
aI1777
aI1858
aI1857
aI1859
asI4249
(lp1793
I1694
aI1693
aI1695
aI1775
aI1776
aI1777
aI1858
aI1857
aI1859
aI1860
aI1941
aI1940
aI1942
aI2022
aI1774
asI4250
(lp1794
I1776
aI1775
aI1777
aI1778
aI1858
aI1859
aI1860
aI1941
aI1940
aI1942
aI2023
aI2022
aI2104
aI2103
aI2105
aI2186
aI2185
aI2187
aI2024
aI1857
asI4251
(lp1795
I1859
aI1858
aI1860
aI1941
aI1940
aI1942
aI2022
aI2023
aI2024
aI2105
aI2104
aI2186
aI2185
aI2187
aI2268
aI2267
aI2349
aI2348
aI2350
aI2431
aI2430
aI2512
aI2511
aI2103
asI4252
(lp1796
I2023
aI2022
aI2024
aI2105
aI2104
aI2106
aI2187
aI2186
aI2268
aI2267
aI2269
aI2350
aI2349
aI2431
aI2430
aI2512
aI2511
aI2513
aI2594
aI2593
aI2675
aI2674
aI2756
aI2755
aI2757
aI2838
aI2837
aI2185
aI2348
asI4253
(lp1797
I2268
aI2267
aI2269
aI2350
aI2349
aI2431
aI2430
aI2512
aI2511
aI2513
aI2187
aI2593
aI2594
aI2675
aI2674
aI2756
aI2755
aI2757
aI2838
aI2837
aI2919
aI2918
aI3000
aI2999
aI3001
aI3082
aI3081
aI3163
aI3162
aI3244
aI3243
asI4254
(lp1798
I2594
aI2593
aI2675
aI2674
aI2756
aI2755
aI2757
aI2838
aI2837
aI2919
aI2918
aI3000
aI2999
aI3001
aI3082
aI3081
aI3163
aI3162
aI3164
aI3245
aI3244
aI3326
aI3325
aI3327
aI3408
aI3407
aI3489
aI3488
aI3490
aI3571
aI3570
aI3406
aI3243
asI4294
(lp1799
I2426
aI2425
aI2345
aI2346
asI4295
(lp1800
I2345
aI2344
aI2264
aI2265
asI4296
(lp1801
I2264
aI2263
aI2344
asI4297
(lp1802
I2263
aI2183
asI4298
(lp1803
I2263
aI2262
aI2182
aI2183
asI4299
(lp1804
I2182
aI2181
aI2101
aI2102
asI4300
(lp1805
I2101
aI2100
aI2181
asI4301
(lp1806
I2100
aI2099
aI2019
aI2020
asI4302
(lp1807
I2019
aI2018
aI2099
asI4303
(lp1808
I2018
aI2019
asI4304
(lp1809
I2018
aI2017
aI1938
asI4305
(lp1810
I1936
aI2017
asI4306
(lp1811
I1936
aI1935
asI4307
(lp1812
I1935
aI1934
aI1855
aI1936
aI1856
asI4308
(lp1813
I1934
aI1854
aI1855
aI1935
asI4309
(lp1814
I1854
aI1853
asI4310
(lp1815
I1853
aI1852
aI1854
asI4311
(lp1816
I1852
aI1853
asI4312
(lp1817
I1852
aI1851
aI1772
aI1771
asI4313
(lp1818
I1851
aI1850
aI1771
aI1770
aI1772
aI1852
asI4314
(lp1819
I1850
aI1770
aI1771
aI1851
asI4315
(lp1820
I1770
aI1769
aI1771
asI4316
(lp1821
I1769
aI1770
asI4317
(lp1822
I1769
aI1768
aI1770
asI4318
(lp1823
I1768
aI1769
aI1770
asI4319
(lp1824
I1768
aI1767
aI1769
asI4320
(lp1825
I1769
aI1689
aI1690
aI1691
aI1692
aI1772
aI1770
aI1771
asI4321
(lp1826
I1689
aI1690
aI1691
aI1692
aI1773
aI1772
asI4322
(lp1827
I1690
aI1689
aI1691
aI1692
aI1693
aI1774
aI1773
aI1772
asI4323
(lp1828
I1690
aI1691
aI1692
aI1693
aI1774
aI1773
aI1775
asI4324
(lp1829
I1691
aI1690
aI1692
aI1693
aI1774
aI1773
aI1775
aI1776
asI4325
(lp1830
I1692
aI1691
aI1693
aI1774
aI1773
aI1775
aI1776
aI1777
aI1858
aI1857
asI4326
(lp1831
I1693
aI1692
aI1694
aI1775
aI1774
aI1776
aI1777
aI1858
aI1857
aI1859
aI1860
aI1941
aI1940
aI1773
asI4327
(lp1832
I1775
aI1774
aI1776
aI1694
aI1777
aI1858
aI1857
aI1859
aI1940
aI1939
aI1941
aI1942
aI2023
aI2022
aI2024
aI1860
asI4328
(lp1833
I1777
aI1776
aI1858
aI1857
aI1859
aI1860
aI1941
aI1940
aI1942
aI2023
aI2022
aI2104
aI2103
aI2105
aI2186
aI2185
aI2187
aI2267
aI2024
aI1939
asI4329
(lp1834
I1860
aI1859
aI1941
aI1940
aI1942
aI2022
aI2023
aI2024
aI2105
aI2104
aI2186
aI2185
aI2187
aI2268
aI2267
aI2349
aI2348
aI2350
aI2431
aI2430
aI2512
aI2511
aI2103
asI4330
(lp1835
I2023
aI2022
aI2024
aI2105
aI2104
aI2186
aI2185
aI2187
aI2268
aI2267
aI2349
aI2348
aI2350
aI2431
aI2430
aI2512
aI2511
aI2513
aI2594
aI2593
aI2675
aI2674
aI2756
aI2755
aI2757
aI2837
asI4331
(lp1836
I2268
aI2267
aI2349
aI2348
aI2350
aI2431
aI2430
aI2512
aI2511
aI2187
aI2513
aI2594
aI2593
aI2675
aI2674
aI2756
aI2755
aI2757
aI2838
aI2837
aI2919
aI2918
aI3000
aI2999
aI3001
aI3082
aI3081
aI3163
aI3162
asI4332
(lp1837
I2513
aI2512
aI2594
aI2593
aI2675
aI2674
aI2756
aI2755
aI2757
aI2838
aI2837
aI2919
aI2918
aI3000
aI2999
aI3001
aI3082
aI3081
aI3163
aI3162
aI3164
aI3245
aI3244
aI3326
aI3325
aI3407
aI3406
aI3408
aI3489
aI3488
aI3243
asI4333
(lp1838
I2919
aI2918
aI3000
aI2999
aI3001
aI3082
aI3081
aI3163
aI3162
aI3244
aI3243
aI2838
aI3245
aI3326
aI3325
aI3327
aI3408
aI3407
aI3409
aI3490
aI3489
aI3571
aI3570
aI3572
aI3653
aI3652
aI3654
aI3735
aI3734
aI3164
aI3406
aI3488
asI4334
(lp1839
I3245
aI3244
aI3326
aI3325
aI3407
aI3406
aI3408
aI3489
aI3488
aI3490
aI3571
aI3570
aI3572
aI3653
aI3652
aI3654
aI3655
aI3656
aI3737
aI3736
aI3738
aI3739
aI3740
aI3821
aI3820
aI3735
aI3819
aI3327
aI3409
aI3734
asI4376
(lp1840
I2264
aI2263
aI2265
asI4377
(lp1841
I2263
aI2183
aI2264
aI2184
asI4378
(lp1842
I2183
aI2182
asI4379
(lp1843
I2182
aI2181
aI2101
aI2102
aI2183
aI2103
asI4380
(lp1844
I2101
aI2100
aI2102
asI4381
(lp1845
I2020
aI2019
aI2100
aI2101
asI4382
(lp1846
I2019
aI2020
aI2100
asI4383
(lp1847
I2019
aI2018
aI2020
asI4384
(lp1848
I2018
aI2017
aI1938
aI2019
aI1939
asI4385
(lp1849
I1936
aI1938
asI4386
(lp1850
I1936
aI1938
asI4387
(lp1851
I1936
aI1935
aI1855
aI1856
asI4388
(lp1852
I1855
aI1854
aI1856
aI1936
aI1935
asI4389
(lp1853
I1854
aI1855
aI1856
asI4390
(lp1854
I1854
aI1853
aI1855
asI4391
(lp1855
I1853
aI1852
aI1854
asI4392
(lp1856
I1852
aI1772
aI1773
aI1774
aI1854
aI1853
asI4393
(lp1857
I1772
aI1771
aI1773
asI4394
(lp1858
I1771
aI1772
aI1773
asI4395
(lp1859
I1771
aI1770
aI1772
aI1773
asI4396
(lp1860
I1770
aI1771
aI1772
asI4397
(lp1861
I1770
aI1771
aI1772
asI4398
(lp1862
I1770
aI1769
aI1771
aI1772
asI4399
(lp1863
I1769
aI1770
aI1771
aI1772
asI4406
(lp1864
I1859
aI1858
aI1860
aI1941
aI1940
aI1942
aI2023
aI2022
aI2104
aI2103
aI2105
aI2186
aI2185
aI2187
aI2268
aI2267
aI2349
aI2348
aI1939
aI2021
asI4407
(lp1865
I1942
aI1941
aI2023
aI2022
aI2024
aI2105
aI2104
aI2186
aI2185
aI2187
aI2268
aI2267
aI2349
aI2348
aI2350
aI2431
aI2430
aI2512
aI2511
aI2513
aI2593
aI2103
asI4408
(lp1866
I2105
aI2104
aI2186
aI2185
aI2187
aI2024
aI2267
aI2268
aI2349
aI2348
aI2350
aI2431
aI2430
aI2512
aI2511
aI2593
aI2592
aI2594
aI2675
aI2674
aI2756
aI2755
aI2757
aI2837
aI2513
asI4409
(lp1867
I2268
aI2267
aI2349
aI2348
aI2350
aI2431
aI2430
aI2512
aI2511
aI2513
aI2594
aI2593
aI2675
aI2674
aI2756
aI2755
aI2757
aI2838
aI2837
aI2919
aI2918
aI3000
aI2999
aI3001
aI3082
aI3081
aI3162
aI2592
asI4410
(lp1868
I2513
aI2512
aI2594
aI2593
aI2675
aI2674
aI2756
aI2755
aI2757
aI2837
aI2838
aI2919
aI2918
aI3000
aI2999
aI3001
aI3082
aI3081
aI3163
aI3162
aI3164
aI3245
aI3244
aI3326
aI3325
aI3407
aI3406
aI3408
aI3488
aI3243
asI4411
(lp1869
I2838
aI2837
aI2919
aI2918
aI3000
aI2999
aI3001
aI3082
aI3081
aI3163
aI3162
aI3244
aI3243
aI3245
aI3326
aI3325
aI3327
aI3408
aI3407
aI3489
aI3488
aI3490
aI3571
aI3570
aI3572
aI3653
aI3652
aI3651
aI3164
aI3406
asI4412
(lp1870
I3244
aI3243
aI3245
aI3326
aI3325
aI3407
aI3406
aI3408
aI3489
aI3488
aI3163
aI3490
aI3571
aI3570
aI3572
aI3653
aI3652
aI3654
aI3655
aI3736
aI3735
aI3737
aI3738
aI3819
aI3818
aI3734
aI3733
aI3817
aI3327
asI4413
(lp1871
I3490
aI3489
aI3571
aI3570
aI3572
aI3653
aI3652
aI3654
aI3735
aI3734
aI3736
aI3737
aI3738
aI3739
aI3740
aI3741
aI3742
aI3743
aI3744
aI3820
aI3819
aI3821
aI3655
aI3818
asI4414
(lp1872
I3736
aI3735
aI3737
aI3738
aI3739
aI3820
aI3819
aI3821
aI3742
aI3741
aI3743
aI3744
aI3665
aI3664
aI3666
aI3745
aI3740
asI4457
(lp1873
I2264
aI2263
aI2183
aI2184
aI2265
aI2185
asI4458
(lp1874
I2183
aI2184
aI2265
aI2264
aI2185
asI4459
(lp1875
I2183
aI2182
aI2102
aI2103
aI2184
asI4460
(lp1876
I2102
aI2101
aI2183
aI2182
aI2103
asI4461
(lp1877
I2101
aI2100
aI2102
aI2103
aI2183
aI2182
asI4462
(lp1878
I2100
aI2020
aI2021
aI2101
aI2102
asI4463
(lp1879
I2020
aI2019
aI2021
aI2101
asI4464
(lp1880
I2019
aI2018
aI1938
aI1939
aI2020
aI1940
aI2021
asI4465
(lp1881
I1938
aI1939
aI2020
aI2019
aI1940
aI2018
asI4466
(lp1882
I1938
aI1939
aI2020
aI2019
aI1940
asI4467
(lp1883
I1936
aI1938
aI1939
asI4468
(lp1884
I1936
aI1856
aI1857
aI1938
aI1858
asI4469
(lp1885
I1856
aI1855
aI1857
aI1938
aI1858
asI4470
(lp1886
I1855
aI1854
aI1856
aI1857
asI4471
(lp1887
I1854
aI1855
aI1856
aI1857
asI4472
(lp1888
I1774
aI1773
aI1854
aI1855
aI1856
aI1776
asI4473
(lp1889
I1773
aI1774
aI1855
aI1854
aI1856
aI1776
asI4474
(lp1890
I1773
aI1774
aI1775
aI1855
aI1856
aI1854
aI1776
asI4487
(lp1891
I2350
aI2349
aI2431
aI2430
aI2512
aI2511
aI2513
aI2593
aI2594
aI2675
aI2674
aI2756
aI2755
aI2757
aI2838
aI2837
aI2919
aI2918
aI3000
aI2999
aI3081
aI3080
aI3082
aI3163
aI3162
aI3243
aI2592
aI2836
asI4488
(lp1892
I2594
aI2593
aI2675
aI2674
aI2756
aI2755
aI2757
aI2837
aI2838
aI2919
aI2918
aI3000
aI2999
aI3001
aI3082
aI3081
aI3163
aI3162
aI3244
aI3243
aI3245
aI3326
aI3325
aI3407
aI3406
aI3408
aI3488
aI3080
asI4489
(lp1893
I2838
aI2837
aI2919
aI2918
aI3000
aI2999
aI3001
aI3082
aI3081
aI3162
aI3163
aI3244
aI3243
aI3245
aI3326
aI3325
aI3327
aI3408
aI3407
aI3489
aI3488
aI3490
aI3571
aI3570
aI3652
aI3651
aI3653
aI3569
aI3406
asI4490
(lp1894
I3163
aI3162
aI3244
aI3243
aI3245
aI3326
aI3325
aI3407
aI3406
aI3408
aI3488
aI3489
aI3490
aI3571
aI3570
aI3572
aI3653
aI3652
aI3654
aI3655
aI3736
aI3735
aI3737
aI3818
aI3817
aI3734
aI3733
aI3327
aI3651
asI4491
(lp1895
I3489
aI3488
aI3490
aI3571
aI3570
aI3652
aI3651
aI3653
aI3734
aI3733
aI3735
aI3736
aI3737
aI3738
aI3739
aI3740
aI3741
aI3742
aI3823
aI3822
aI3819
aI3818
aI3820
aI3821
aI3572
aI3654
aI3655
aI3817
asI4492
(lp1896
I3734
aI3733
aI3735
aI3736
aI3737
aI3818
aI3817
aI3819
aI3653
aI3820
aI3741
aI3740
aI3742
aI3743
aI3664
aI3663
aI3665
aI3666
aI3744
aI3745
aI3823
aI3738
aI3739
aI3822
asI4493
(lp1897
I3820
aI3819
aI3821
aI3742
aI3741
aI3743
aI3744
aI3745
aI3666
aI3665
aI3740
aI3664
aI3663
asI4539
(lp1898
I2184
aI2183
aI2265
aI2264
aI2266
aI2186
aI2346
asI4540
(lp1899
I2183
aI2184
aI2185
aI2265
aI2266
aI2264
aI2186
asI4541
(lp1900
I2103
aI2102
aI2183
aI2184
aI2185
aI2105
aI2265
asI4542
(lp1901
I2102
aI2101
aI2103
aI2184
aI2183
aI2104
aI2185
aI2105
asI4543
(lp1902
I2101
aI2021
aI2102
aI2103
aI2183
aI2184
aI2104
asI4544
(lp1903
I2021
aI2020
aI2102
aI2101
aI2103
aI2023
aI2183
asI4545
(lp1904
I2020
aI2021
aI2102
aI2101
aI2022
aI2103
aI2023
asI4546
(lp1905
I2020
aI2019
aI1939
aI1940
aI2021
aI2022
aI2102
aI2101
asI4547
(lp1906
I1939
aI1938
aI2020
aI2019
aI2021
aI1941
aI2022
aI2102
asI4548
(lp1907
I1938
aI1939
aI1940
aI2021
aI2020
aI1941
aI2019
asI4549
(lp1908
I1938
aI1939
aI1940
aI2020
aI2021
aI1941
asI4550
(lp1909
I1857
aI1938
aI1939
aI1940
aI1860
aI2020
asI4551
(lp1910
I1857
aI1856
aI1858
aI1939
aI1938
aI1940
aI1860
asI4552
(lp1911
I1856
aI1857
aI1858
aI1939
aI1938
aI1859
aI1940
aI1860
asI4553
(lp1912
I1856
aI1857
aI1858
aI1939
aI1938
aI1859
asI4554
(lp1913
I1856
aI1855
aI1857
aI1858
aI1939
aI1938
aI1859
asI4555
(lp1914
I1855
aI1775
aI1856
aI1857
aI1858
aI1939
aI1938
aI1859
asI4556
(lp1915
I1775
aI1776
aI1857
aI1856
aI1858
aI1859
aI1940
aI1939
aI1855
aI1938
asI4567
(lp1916
I3000
aI2999
aI3081
aI3080
aI3082
aI3163
aI3162
aI2919
aI3243
aI3244
aI3245
aI3326
aI3325
aI3407
aI3406
aI3408
aI3489
aI3488
aI3490
aI3571
aI3570
aI3652
aI3651
aI3653
aI3733
aI3569
aI3001
asI4568
(lp1917
I3244
aI3243
aI3245
aI3326
aI3325
aI3407
aI3406
aI3408
aI3488
aI3489
aI3490
aI3571
aI3570
aI3572
aI3653
aI3652
aI3654
aI3655
aI3736
aI3735
aI3737
aI3818
aI3817
aI3734
aI3733
aI3816
aI3651
asI4569
(lp1918
I3489
aI3488
aI3570
aI3569
aI3571
aI3652
aI3651
aI3653
aI3654
aI3735
aI3734
aI3736
aI3737
aI3738
aI3739
aI3740
aI3821
aI3820
aI3822
aI3819
aI3818
aI3490
aI3572
aI3655
aI3817
asI4570
(lp1919
I3734
aI3733
aI3735
aI3736
aI3737
aI3818
aI3817
aI3653
aI3819
aI3740
aI3739
aI3741
aI3742
aI3743
aI3744
aI3665
aI3664
aI3666
aI3823
aI3822
aI3745
aI3654
aI3738
aI3821
aI3820
asI4571
(lp1920
I3819
aI3818
aI3820
aI3821
aI3822
aI3823
aI3744
aI3743
aI3745
aI3666
aI3665
aI3740
aI3739
aI3741
aI3742
aI3664
asI4572
(lp1921
I3744
aI3743
aI3745
aI3666
aI3665
aI3823
asI4573
(lp1922
I2723
aI2722
aI2724
aI2645
aI2644
aI2646
aI2567
aI2566
aI2721
aI2643
aI2565
asI4620
(lp1923
I2266
aI2265
aI2347
aI2346
aI2348
aI2428
aI2429
asI4621
(lp1924
I2265
aI2185
aI2266
aI2347
aI2346
aI2348
aI2428
asI4622
(lp1925
I2185
aI2184
aI2266
aI2265
aI2267
aI2348
aI2347
aI2346
asI4623
(lp1926
I2184
aI2183
aI2185
aI2266
aI2265
aI2267
aI2347
aI2348
asI4624
(lp1927
I2183
aI2103
aI2184
aI2185
aI2266
aI2265
aI2267
aI2347
asI4625
(lp1928
I2103
aI2102
aI2184
aI2183
aI2185
aI2266
aI2265
aI2267
asI4626
(lp1929
I2102
aI2103
aI2104
aI2185
aI2184
aI2266
aI2265
aI2183
asI4627
(lp1930
I2022
aI2021
aI2102
aI2103
aI2104
aI2185
aI2184
aI2186
aI2266
aI2265
asI4628
(lp1931
I2021
aI2022
aI2103
aI2102
aI2104
aI2185
aI2184
asI4629
(lp1932
I2021
aI2020
aI2022
aI2103
aI2102
aI2104
aI2185
aI2184
asI4630
(lp1933
I2020
aI1940
aI2021
aI2022
aI2103
aI2102
aI2104
aI2184
aI2185
asI4631
(lp1934
I1940
aI2021
aI2020
aI2022
aI2103
aI2102
aI2104
aI2184
asI4632
(lp1935
I1940
aI1939
aI2021
aI2020
aI2022
aI2103
aI2102
aI2104
aI2184
asI4633
(lp1936
I1939
aI1940
aI2021
aI2020
aI2022
aI2103
aI2102
aI2104
asI4634
(lp1937
I1939
aI1940
aI1941
aI2022
aI2021
aI2023
aI2104
aI2103
aI2105
aI2185
aI2020
aI2102
asI4635
(lp1938
I1939
aI1940
aI1941
aI2022
aI2021
aI2023
aI2104
aI2103
aI2105
aI2185
asI4636
(lp1939
I1940
aI1939
aI1941
aI2022
aI2021
aI2023
aI2104
aI2103
aI2105
aI2186
aI2185
asI4637
(lp1940
I1940
aI1941
aI2022
aI2021
aI2023
aI2104
aI2103
aI2105
aI2186
aI2185
asI4638
(lp1941
I1941
aI1940
aI2022
aI2021
aI2023
aI2104
aI2103
aI2105
aI2186
aI2185
aI2267
aI2266
aI2187
asI4640
(lp1942
I2350
aI2349
aI2430
aI2431
aI2512
aI2511
aI2593
aI2592
aI2594
aI2675
aI2674
aI2756
aI2755
aI2837
aI2836
aI2838
aI2919
aI2918
aI2999
aI2429
aI2673
asI4641
(lp1943
I2431
aI2430
aI2512
aI2511
aI2593
aI2592
aI2594
aI2675
aI2674
aI2756
aI2755
aI2837
aI2836
aI2838
aI2919
aI2918
aI3000
aI2999
aI3081
aI3080
aI3082
aI3162
asI4646
(lp1944
I3326
aI3325
aI3407
aI3406
aI3408
aI3489
aI3488
aI3570
aI3569
aI3571
aI3572
aI3653
aI3652
aI3654
aI3735
aI3734
aI3736
aI3737
aI3818
aI3817
aI3819
aI3816
aI3490
aI3733
asI4647
(lp1945
I3570
aI3569
aI3571
aI3652
aI3651
aI3653
aI3489
aI3733
aI3734
aI3735
aI3736
aI3737
aI3738
aI3739
aI3740
aI3821
aI3820
aI3822
aI3819
aI3572
aI3654
aI3818
aI3817
asI4648
(lp1946
I3734
aI3733
aI3735
aI3736
aI3817
aI3816
aI3818
aI3819
aI3820
aI3741
aI3740
aI3742
aI3743
aI3744
aI3745
aI3666
aI3665
aI3823
aI3822
aI3746
aI3737
aI3738
aI3739
aI3821
asI4649
(lp1947
I3819
aI3818
aI3820
aI3821
aI3822
aI3823
aI3744
aI3743
aI3665
aI3664
aI3666
aI3741
aI3740
aI3742
aI3745
asI4650
(lp1948
I3823
aI3822
aI3744
aI3743
aI3745
aI3666
aI3665
aI3664
asI4651
(lp1949
I2722
aI2721
aI2723
aI2644
aI2643
asI4652
(lp1950
I2804
aI2805
aI2726
aI2725
aI2727
aI2728
aI2649
aI2648
aI2650
aI2651
aI2652
aI2573
aI2572
aI2574
aI2575
aI2645
aI2644
aI2646
aI2647
aI2568
aI2567
aI2569
aI2570
aI2571
aI2655
aI2722
aI2721
aI2723
aI2643
asI4653
(lp1951
I2722
aI2721
aI2723
aI2644
aI2643
aI2645
aI2566
aI2565
aI2567
aI2568
aI2569
aI2650
aI2649
aI2651
aI2652
aI2733
aI2732
aI2734
aI2735
aI2816
aI2815
aI2817
aI2818
aI2899
aI2898
aI2900
aI2901
aI2982
aI2981
aI2983
aI2984
aI3065
aI3064
aI3066
aI3067
aI3148
aI3147
aI3149
aI3150
aI3231
aI3230
aI2576
aI2575
aI2577
aI2657
aI2739
aI2738
aI2740
aI2821
aI2820
aI2822
aI2903
aI2902
aI2904
aI2985
aI2986
aI3068
aI2804
aI2805
aI2726
aI2725
aI2727
aI2728
aI2648
aI2573
aI2572
aI2574
asI4702
(lp1952
I2348
aI2429
aI2428
aI2430
aI2511
aI2510
aI2592
aI2591
asI4703
(lp1953
I2348
aI2347
aI2429
aI2428
aI2430
aI2511
aI2510
aI2592
aI2591
asI4704
(lp1954
I2347
aI2267
aI2348
aI2429
aI2428
aI2430
aI2511
aI2510
aI2592
aI2591
aI2512
asI4705
(lp1955
I2267
aI2266
aI2348
aI2347
aI2429
aI2428
aI2430
aI2511
aI2510
asI4706
(lp1956
I2266
aI2267
aI2348
aI2347
aI2349
aI2430
aI2429
aI2511
aI2510
aI2428
asI4707
(lp1957
I2186
aI2185
aI2266
aI2267
aI2348
aI2347
aI2349
aI2430
aI2429
aI2510
aI2511
asI4708
(lp1958
I2185
aI2186
aI2267
aI2266
aI2348
aI2347
aI2349
aI2430
aI2429
aI2510
asI4709
(lp1959
I2185
aI2186
aI2267
aI2266
aI2348
aI2347
aI2349
aI2430
aI2429
aI2510
asI4710
(lp1960
I2185
aI2184
aI2186
aI2267
aI2266
aI2348
aI2347
aI2349
aI2430
aI2429
asI4711
(lp1961
I2184
aI2185
aI2186
aI2267
aI2266
aI2348
aI2347
aI2349
aI2430
aI2429
asI4712
(lp1962
I2184
aI2104
aI2185
aI2186
aI2267
aI2266
aI2348
aI2347
aI2349
aI2430
aI2429
asI4713
(lp1963
I2104
aI2185
aI2184
aI2186
aI2267
aI2266
aI2268
aI2349
aI2348
aI2430
aI2429
aI2431
aI2511
aI2347
asI4714
(lp1964
I2105
aI2104
aI2185
aI2186
aI2267
aI2266
aI2268
aI2349
aI2348
aI2430
aI2429
aI2431
aI2511
aI2184
asI4715
(lp1965
I2185
aI2186
aI2267
aI2266
aI2268
aI2349
aI2348
aI2430
aI2429
aI2431
aI2512
aI2511
asI4716
(lp1966
I2186
aI2185
aI2267
aI2266
aI2268
aI2349
aI2348
aI2430
aI2429
aI2431
aI2512
aI2511
aI2593
aI2592
aI2513
asI4717
(lp1967
I2186
aI2267
aI2266
aI2268
aI2349
aI2348
aI2430
aI2429
aI2431
aI2512
aI2511
aI2593
aI2592
aI2674
aI2673
aI2594
asI4718
(lp1968
I2267
aI2266
aI2186
aI2187
aI2268
aI2349
aI2348
aI2430
aI2429
aI2431
aI2512
aI2511
aI2593
aI2592
aI2674
aI2673
aI2675
aI2755
asI4719
(lp1969
I2268
aI2267
aI2349
aI2348
aI2269
aI2430
aI2429
aI2431
aI2512
aI2511
aI2593
aI2592
aI2674
aI2673
aI2675
aI2756
aI2755
aI2837
aI2836
aI2757
asI4720
(lp1970
I2838
aI2837
aI2919
aI2918
aI2999
aI3000
aI3081
aI3080
aI3082
aI3163
aI3162
aI3244
aI3243
aI3245
aI3326
aI3325
aI3407
aI3406
aI3488
aI3487
aI3489
aI3324
asI4721
(lp1971
I3000
aI2999
aI3081
aI3080
aI3082
aI3162
aI3163
aI3244
aI3243
aI3245
aI3326
aI3325
aI3407
aI3406
aI3408
aI3489
aI3488
aI3570
aI3569
aI3571
aI3651
aI3487
asI4722
(lp1972
I3163
aI3162
aI3244
aI3243
aI3325
aI3324
aI3326
aI3407
aI3406
aI3408
aI3489
aI3488
aI3490
aI3571
aI3570
aI3652
aI3651
aI3653
aI3734
aI3733
aI3245
aI3569
asI4723
(lp1973
I3326
aI3325
aI3407
aI3406
aI3488
aI3487
aI3489
aI3570
aI3569
aI3571
aI3572
aI3653
aI3652
aI3654
aI3735
aI3734
aI3736
aI3817
aI3816
aI3408
aI3490
aI3651
aI3733
asI4724
(lp1974
I3489
aI3488
aI3570
aI3569
aI3571
aI3651
aI3652
aI3653
aI3654
aI3735
aI3734
aI3736
aI3737
aI3738
aI3819
aI3818
aI3820
aI3817
aI3572
aI3816
asI4725
(lp1975
I3652
aI3651
aI3653
aI3734
aI3733
aI3735
aI3736
aI3737
aI3738
aI3739
aI3740
aI3741
aI3742
aI3743
aI3824
aI3823
aI3821
aI3820
aI3822
aI3654
aI3819
aI3818
asI4726
(lp1976
I3736
aI3735
aI3817
aI3816
aI3818
aI3819
aI3820
aI3821
aI3742
aI3741
aI3743
aI3744
aI3745
aI3666
aI3665
aI3746
aI3824
aI3737
aI3738
aI3739
aI3740
aI3823
asI4727
(lp1977
I3820
aI3819
aI3821
aI3822
aI3823
aI3744
aI3743
aI3745
aI3666
aI3665
aI3742
aI3741
asI4728
(lp1978
I3823
aI3822
aI3744
aI3743
aI3745
aI3746
aI3666
aI3665
asI4729
(lp1979
I3666
aI2722
aI2721
asI4730
(lp1980
I2804
aI2725
aI2724
aI2726
aI2727
aI2648
aI2647
aI2649
aI2570
aI2569
aI2571
aI2572
aI2492
aI2723
aI2722
aI2644
aI2643
aI2645
aI2646
aI2568
aI2567
aI2491
aI2721
asI4731
(lp1981
I2722
aI2721
aI2723
aI2644
aI2643
aI2645
aI2646
aI2647
aI2648
aI2729
aI2728
aI2730
aI2731
aI2732
aI2733
aI2734
aI2815
aI2814
aI2816
aI2817
aI2818
aI2819
aI2820
aI2821
aI2902
aI2901
aI2903
aI2904
aI2905
aI2906
aI2573
aI2572
aI2574
aI2575
aI2656
aI2655
aI2657
aI2739
aI2738
aI2740
aI2741
aI2822
aI2823
aI2824
aI2492
aI2804
aI2725
aI2724
aI2726
aI2727
aI2649
aI2570
aI2569
aI2571
asI4732
(lp1982
I2645
aI2644
aI2646
aI2647
aI2568
aI2567
aI2569
aI2570
aI2571
aI2572
aI2573
aI2574
aI2575
aI2655
aI2576
aI2657
aI2656
aI2739
aI2738
aI2820
aI2819
aI2821
aI2902
aI2901
aI2983
aI2982
aI2984
aI3065
aI3064
aI3146
aI3145
aI3147
aI3228
aI3227
aI3309
aI3310
aI3391
aI3473
aI2987
aI2986
aI3068
aI3067
aI3149
aI3148
aI3150
aI3231
aI3230
aI3312
aI3311
aI3393
aI3392
aI3474
aI3555
aI3556
aI3637
aI2906
aI2648
aI2729
aI2728
aI2730
aI2731
aI2732
aI2733
aI2734
aI2815
aI2814
aI2816
aI2817
aI2818
aI2903
aI2904
aI2905
asI4784
(lp1983
I2592
aI2591
aI2511
aI2512
aI2593
aI2674
aI2673
aI2755
aI2754
aI2836
aI2835
aI2837
aI2917
asI4785
(lp1984
I2511
aI2592
aI2591
aI2593
aI2674
aI2673
aI2755
aI2754
aI2836
aI2835
aI2837
aI2917
asI4786
(lp1985
I2511
aI2512
aI2593
aI2592
aI2674
aI2673
aI2755
aI2754
aI2756
aI2837
aI2836
aI2917
aI2591
aI2835
asI4787
(lp1986
I2511
aI2510
aI2512
aI2593
aI2592
aI2674
aI2673
aI2755
aI2754
aI2756
aI2837
aI2836
asI4788
(lp1987
I2510
aI2511
aI2512
aI2593
aI2592
aI2674
aI2673
aI2755
aI2754
aI2756
aI2837
aI2836
asI4789
(lp1988
I2510
aI2430
aI2511
aI2512
aI2593
aI2592
aI2674
aI2673
aI2755
aI2754
aI2756
aI2837
aI2836
asI4790
(lp1989
I2430
aI2511
aI2510
aI2512
aI2593
aI2592
aI2674
aI2673
aI2755
aI2754
aI2756
aI2837
aI2836
asI4791
(lp1990
I2430
aI2511
aI2510
aI2512
aI2593
aI2592
aI2674
aI2673
aI2755
aI2754
aI2756
aI2837
aI2836
aI2917
asI4792
(lp1991
I2430
aI2431
aI2512
aI2511
aI2593
aI2592
aI2674
aI2673
aI2675
aI2756
aI2755
aI2837
aI2836
aI2918
aI2917
aI2510
aI2754
asI4793
(lp1992
I2431
aI2430
aI2511
aI2512
aI2593
aI2592
aI2674
aI2673
aI2675
aI2756
aI2755
aI2837
aI2836
aI2918
aI2917
asI4794
(lp1993
I2511
aI2512
aI2593
aI2592
aI2674
aI2673
aI2675
aI2756
aI2755
aI2837
aI2836
aI2918
aI2917
aI2919
aI2999
asI4795
(lp1994
I2512
aI2511
aI2593
aI2592
aI2674
aI2673
aI2675
aI2756
aI2755
aI2837
aI2836
aI2918
aI2917
aI2919
aI3000
aI2999
asI4796
(lp1995
I2593
aI2592
aI2512
aI2513
aI2674
aI2673
aI2675
aI2756
aI2755
aI2837
aI2836
aI2918
aI2917
aI2919
aI3000
aI2999
aI3081
aI3080
aI3001
asI4797
(lp1996
I2674
aI2673
aI2593
aI2594
aI2675
aI2756
aI2755
aI2837
aI2836
aI2918
aI2917
aI2919
aI3000
aI2999
aI3081
aI3080
aI3162
aI3161
aI3163
aI3083
asI4798
(lp1997
I2675
aI2674
aI2755
aI2756
aI2837
aI2836
aI2838
aI2919
aI2918
aI3000
aI2999
aI3081
aI3080
aI3082
aI3163
aI3162
aI3244
aI3243
aI3324
aI2917
aI3161
asI4799
(lp1998
I2756
aI2755
aI2837
aI2836
aI2757
aI2838
aI2919
aI2918
aI3000
aI2999
aI3081
aI3080
aI3082
aI3163
aI3162
aI3244
aI3243
aI3325
aI3324
aI3326
aI3406
asI4800
(lp1999
I3407
aI3406
aI3488
aI3487
aI3489
aI3570
aI3569
aI3571
aI3652
aI3651
aI3653
aI3654
aI3735
aI3734
aI3736
aI3817
aI3816
aI3818
aI3815
aI3733
asI4801
(lp2000
I3570
aI3569
aI3571
aI3489
aI3651
aI3652
aI3653
aI3654
aI3735
aI3734
aI3736
aI3737
aI3818
aI3817
aI3819
aI3820
aI3816
asI4802
(lp2001
I3652
aI3651
aI3653
aI3734
aI3733
aI3735
aI3736
aI3737
aI3738
aI3739
aI3820
aI3819
aI3821
aI3822
aI3823
aI3654
aI3818
aI3817
asI4803
(lp2002
I3735
aI3734
aI3736
aI3817
aI3816
aI3818
aI3819
aI3820
aI3741
aI3740
aI3742
aI3743
aI3744
aI3745
aI3824
aI3823
aI3737
aI3738
aI3739
aI3821
aI3822
asI4804
(lp2003
I3818
aI3817
aI3819
aI3820
aI3821
aI3822
aI3743
aI3742
aI3744
aI3745
aI3666
aI3665
aI3746
aI3741
aI3740
asI4805
(lp2004
I3821
aI3820
aI3822
aI3823
aI3824
aI3745
aI3744
aI3666
aI3665
aI3743
aI3742
asI4806
(lp2005
I3745
aI3744
aI3746
aI3666
aI3824
aI3665
asI4807
(lp2006
I2722
aI2721
aI2723
aI2643
asI4808
(lp2007
I2804
aI2725
aI2724
aI2726
aI2647
aI2646
aI2648
aI2569
aI2568
aI2570
aI2571
aI2491
aI2644
aI2643
aI2645
aI2567
aI2722
aI2721
aI2723
asI4809
(lp2008
I2722
aI2721
aI2723
aI2724
aI2725
aI2726
aI2727
aI2728
aI2729
aI2730
aI2731
aI2732
aI2733
aI2734
aI2735
aI2736
aI2737
aI2738
aI2819
aI2818
aI2820
aI2821
aI2822
aI2823
aI2743
aI2492
aI2491
aI2573
aI2572
aI2574
aI2575
aI2656
aI2655
aI2657
aI2740
aI2739
aI2741
aI2742
aI2804
aI2647
aI2646
aI2648
aI2569
aI2568
aI2570
aI2571
asI4810
(lp2009
I2723
aI2722
aI2644
aI2643
aI2645
aI2646
aI2647
aI2568
aI2567
aI2569
aI2570
aI2571
aI2492
aI2491
aI2573
aI2572
aI2574
aI2655
aI2654
aI2656
aI2737
aI2736
aI2738
aI2819
aI2818
aI2900
aI2899
aI2901
aI2982
aI2981
aI2983
aI3064
aI3063
aI3065
aI3146
aI3145
aI3227
aI3228
aI3309
aI3310
aI3391
aI3392
aI3473
aI3555
aI3637
aI2824
aI2823
aI2905
aI2904
aI2986
aI2985
aI2987
aI3068
aI3067
aI3149
aI3148
aI3230
aI3229
aI3231
aI3312
aI3311
aI3393
aI3474
aI3475
aI3556
aI2724
aI2725
aI2726
aI2727
aI2728
aI2729
aI2730
aI2731
aI2732
aI2733
aI2734
aI2735
aI2820
aI2821
aI2822
aI2743
asI4865
(lp2010
I2917
aI2918
aI2999
aI2998
aI3000
aI3081
aI3080
aI3162
aI3161
aI3243
aI3242
aI3323
aI3079
asI4866
(lp2011
I2917
aI2837
aI2918
aI2999
aI2998
aI3000
aI3081
aI3080
aI3162
aI3161
aI3243
aI3242
aI3244
asI4867
(lp2012
I2837
aI2918
aI2917
aI2999
aI2998
aI3000
aI3081
aI3080
aI3162
aI3161
aI3243
aI3242
aI3244
aI3324
asI4868
(lp2013
I2837
aI2918
aI2917
aI2999
aI2998
aI3000
aI3081
aI3080
aI3162
aI3161
aI3243
aI3242
aI3244
aI3324
asI4869
(lp2014
I2837
aI2918
aI2917
aI2999
aI2998
aI3000
aI3081
aI3080
aI3162
aI3161
aI3243
aI3242
aI3244
aI3324
asI4870
(lp2015
I2837
aI2918
aI2917
aI2999
aI2998
aI3000
aI3081
aI3080
aI3162
aI3161
aI3243
aI3242
aI3244
aI3324
asI4871
(lp2016
I2917
aI2837
aI2918
aI2919
aI3000
aI2999
aI3081
aI3080
aI3162
aI3161
aI3163
aI3244
aI3243
aI3325
aI3324
aI2998
aI3242
asI4872
(lp2017
I2918
aI2917
aI2919
aI3000
aI2999
aI3081
aI3080
aI3162
aI3161
aI3163
aI3244
aI3243
aI3325
aI3324
aI3406
aI3405
aI3326
asI4873
(lp2018
I2918
aI2919
aI3000
aI2999
aI3081
aI3080
aI3162
aI3161
aI3163
aI3244
aI3243
aI3325
aI3324
aI3406
aI3405
asI4874
(lp2019
I2919
aI2918
aI2999
aI3000
aI3081
aI3080
aI3162
aI3161
aI3163
aI3244
aI3243
aI3325
aI3324
aI3326
aI3407
aI3406
aI3487
aI3405
asI4875
(lp2020
I3000
aI2999
aI3081
aI3080
aI3162
aI3161
aI3163
aI3244
aI3243
aI3325
aI3324
aI3326
aI3407
aI3406
aI3488
aI3487
aI3489
asI4876
(lp2021
I3081
aI3080
aI3000
aI3001
aI3162
aI3161
aI3163
aI3244
aI3243
aI3325
aI3324
aI3326
aI3407
aI3406
aI3488
aI3487
aI3489
aI3570
aI3569
aI3490
asI4877
(lp2022
I3162
aI3161
aI3163
aI3081
aI3083
aI3244
aI3243
aI3325
aI3324
aI3326
aI3407
aI3406
aI3488
aI3487
aI3489
aI3570
aI3569
aI3571
aI3651
aI3650
asI4878
(lp2023
I3244
aI3243
aI3163
aI3324
aI3325
aI3326
aI3407
aI3406
aI3408
aI3489
aI3488
aI3570
aI3569
aI3571
aI3652
aI3651
aI3653
aI3733
aI3732
aI3487
asI4879
(lp2024
I3325
aI3324
aI3326
aI3406
aI3407
aI3488
aI3487
aI3489
aI3570
aI3569
aI3571
aI3652
aI3651
aI3653
aI3734
aI3733
aI3735
aI3815
aI3408
asI4880
(lp2025
I3816
aI3815
aI3817
aI3818
aI3819
aI3820
aI3821
aI3742
aI3741
aI3743
aI3744
aI3745
aI3746
aI3824
aI3822
aI3823
asI4881
(lp2026
I3819
aI3818
aI3820
aI3821
aI3822
aI3743
aI3742
aI3744
aI3745
aI3666
aI3665
aI3746
aI3741
asI4882
(lp2027
I3821
aI3820
aI3822
aI3823
aI3744
aI3743
aI3745
aI3666
aI3665
aI3742
asI4883
(lp2028
I3824
aI3823
aI3745
aI3744
aI3746
aI3666
aI3743
aI3665
asI4884
(lp2029
I3746
aI3745
aI3666
asI4885
(lp2030
I2723
aI2722
aI2644
aI2643
aI2721
asI4886
(lp2031
I2804
aI2725
aI2724
aI2726
aI2727
aI2648
aI2647
aI2649
aI2570
aI2569
aI2571
aI2572
aI2492
aI2645
aI2644
aI2646
aI2567
aI2566
aI2568
aI2723
aI2722
aI2643
asI4887
(lp2032
I2722
aI2721
aI2723
aI2643
aI2724
aI2725
aI2726
aI2727
aI2728
aI2729
aI2730
aI2731
aI2732
aI2733
aI2734
aI2735
aI2736
aI2737
aI2818
aI2817
aI2819
aI2820
aI2821
aI2822
aI2823
aI2493
aI2492
aI2574
aI2573
aI2575
aI2576
aI2657
aI2656
aI2740
aI2739
aI2741
aI2742
aI2804
aI2648
aI2647
aI2649
aI2570
aI2569
aI2571
aI2572
asI4888
(lp2033
I2644
aI2643
aI2645
aI2646
aI2647
aI2568
aI2567
aI2569
aI2570
aI2571
aI2491
aI2572
aI2573
aI2654
aI2653
aI2655
aI2736
aI2735
aI2737
aI2818
aI2817
aI2819
aI2900
aI2899
aI2901
aI2982
aI2981
aI2983
aI3064
aI3063
aI3065
aI3146
aI3145
aI3227
aI3228
aI3309
aI3310
aI3391
aI3392
aI3473
aI3474
aI3555
aI3556
aI3637
aI2824
aI2823
aI2905
aI2904
aI2986
aI2985
aI2987
aI3068
aI3067
aI3149
aI3148
aI3230
aI3229
aI3231
aI3312
aI3311
aI3393
aI3475
aI2724
aI2723
aI2725
aI2726
aI2727
aI2728
aI2729
aI2730
aI2731
aI2732
aI2733
aI2734
aI2820
aI2821
aI2822
asI4889
(lp2034
I2492
aI2491
aI2573
aI2572
aI2574
aI2575
aI2656
aI2655
aI2657
aI2740
aI2739
aI2741
aI2742
aI2823
aI2822
aI2824
aI2905
aI2904
aI2986
aI2985
aI3067
aI3066
aI3068
aI3149
aI3148
aI3230
aI3229
aI3311
aI3310
aI3392
aI3391
aI3473
aI3474
aI3555
aI3637
aI2571
aI2654
aI2653
aI2736
aI2735
aI2737
aI2818
aI2817
aI2819
aI2900
aI2899
aI2901
aI2982
aI2981
aI2983
aI3064
aI3063
aI3065
aI3146
aI3145
aI3227
aI3228
aI3309
aI3556
asI4947
(lp2035
I3324
aI3244
aI3325
aI3406
aI3405
aI3407
aI3488
aI3487
aI3569
aI3568
aI3570
aI3651
aI3650
asI4948
(lp2036
I3324
aI3325
aI3406
aI3405
aI3407
aI3488
aI3487
aI3569
aI3568
aI3570
aI3651
aI3650
asI4949
(lp2037
I3324
aI3325
aI3406
aI3405
aI3407
aI3488
aI3487
aI3489
aI3570
aI3569
aI3651
aI3650
aI3652
aI3568
asI4950
(lp2038
I3324
aI3325
aI3406
aI3405
aI3407
aI3488
aI3487
aI3489
aI3570
aI3569
aI3651
aI3650
aI3652
aI3732
asI4951
(lp2039
I3325
aI3324
aI3406
aI3405
aI3407
aI3488
aI3487
aI3489
aI3570
aI3569
aI3651
aI3650
aI3652
aI3733
aI3732
asI4952
(lp2040
I3406
aI3405
aI3325
aI3326
aI3407
aI3488
aI3487
aI3489
aI3570
aI3569
aI3571
aI3652
aI3651
aI3733
aI3732
aI3734
aI3650
asI4953
(lp2041
I3406
aI3407
aI3488
aI3487
aI3489
aI3570
aI3569
aI3571
aI3652
aI3651
aI3653
aI3734
aI3733
aI3814
aI3732
asI4954
(lp2042
I3407
aI3406
aI3487
aI3488
aI3489
aI3570
aI3569
aI3571
aI3652
aI3651
aI3653
aI3734
aI3733
aI3735
aI3816
aI3815
aI3814
asI4955
(lp2043
I3488
aI3487
aI3489
aI3570
aI3569
aI3571
aI3652
aI3651
aI3653
aI3734
aI3733
aI3735
aI3816
aI3815
aI3817
asI4956
(lp2044
I3570
aI3569
aI3489
aI3490
aI3571
aI3652
aI3651
aI3653
aI3734
aI3733
aI3735
aI3736
aI3817
aI3816
aI3818
aI3815
asI4957
(lp2045
I3651
aI3650
aI3570
aI3571
aI3652
aI3653
aI3734
aI3733
aI3735
aI3736
aI3737
aI3818
aI3817
aI3819
aI3820
aI3816
asI4958
(lp2046
I3652
aI3651
aI3733
aI3732
aI3653
aI3734
aI3735
aI3736
aI3737
aI3818
aI3817
aI3819
aI3820
aI3821
aI3822
aI3742
asI4959
(lp2047
I3734
aI3733
aI3735
aI3815
aI3816
aI3817
aI3818
aI3819
aI3820
aI3821
aI3822
aI3823
aI3824
aI3736
aI3737
aI3742
asI4960
(lp2048
I3745
aI3744
aI3746
aI3824
aI3666
asI4961
(lp2049
I3666
aI3746
asI4962
(lp2050
I2722
aI2721
asI4963
(lp2051
I2724
aI2723
aI2725
aI2646
aI2645
aI2567
aI2566
aI2568
aI2722
aI2644
aI2643
aI2721
asI4964
(lp2052
I2804
aI2805
aI2726
aI2725
aI2727
aI2728
aI2729
aI2650
aI2649
aI2651
aI2652
aI2653
aI2574
aI2573
aI2575
aI2576
aI2569
aI2568
aI2570
aI2571
aI2572
aI2724
aI2723
aI2646
aI2645
aI2567
aI2566
asI4965
(lp2053
I2722
aI2721
aI2723
aI2644
aI2643
aI2645
aI2646
aI2647
aI2648
aI2729
aI2728
aI2730
aI2731
aI2732
aI2733
aI2734
aI2815
aI2814
aI2816
aI2817
aI2818
aI2819
aI2820
aI2901
aI2900
aI2902
aI2903
aI2904
aI2905
aI2906
aI2986
aI2577
aI2576
aI2657
aI2740
aI2739
aI2741
aI2822
aI2821
aI2823
aI2824
aI2804
aI2805
aI2726
aI2725
aI2727
aI2650
aI2649
aI2651
aI2652
aI2653
aI2574
aI2573
aI2575
asI4966
(lp2054
I2645
aI2644
aI2646
aI2567
aI2566
aI2568
aI2569
aI2570
aI2571
aI2572
aI2492
aI2573
aI2574
aI2655
aI2654
aI2656
aI2737
aI2736
aI2738
aI2819
aI2818
aI2900
aI2899
aI2901
aI2982
aI2981
aI2983
aI3064
aI3063
aI3065
aI3146
aI3145
aI3227
aI3228
aI3309
aI3310
aI3391
aI3392
aI3473
aI3555
aI3637
aI2987
aI2986
aI3068
aI3067
aI3149
aI3148
aI3150
aI3231
aI3230
aI3312
aI3311
aI3393
aI3474
aI3475
aI3556
aI2647
aI2648
aI2729
aI2728
aI2730
aI2731
aI2732
aI2733
aI2734
aI2815
aI2814
aI2816
aI2817
aI2820
aI2902
aI2903
aI2904
aI2905
aI2906
asI4967
(lp2055
I2493
aI2492
aI2574
aI2573
aI2575
aI2576
aI2657
aI2656
aI2740
aI2739
aI2741
aI2742
aI2823
aI2822
aI2824
aI2905
aI2904
aI2986
aI2985
aI3067
aI3066
aI3068
aI3149
aI3148
aI3230
aI3229
aI3311
aI3310
aI3392
aI3391
aI3473
aI3474
aI3555
aI2572
aI2655
aI2654
aI2737
aI2736
aI2738
aI2819
aI2818
aI2900
aI2899
aI2901
aI2982
aI2981
aI2983
aI3064
aI3063
aI3065
aI3146
aI3145
aI3227
aI3228
aI3309
aI3637
asI4969
(lp2056
I3637
aI3719
asI5030
(lp2057
I3732
aI3652
aI3733
aI3734
aI3735
aI3816
aI3815
aI3817
aI3818
aI3819
aI3900
aI3899
asI5031
(lp2058
I3733
aI3732
aI3734
aI3735
aI3816
aI3815
aI3817
aI3818
aI3819
aI3820
aI3900
aI3899
asI5032
(lp2059
I3734
aI3733
aI3735
aI3816
aI3815
aI3817
aI3818
aI3819
aI3820
aI3821
aI3901
aI3900
asI5033
(lp2060
I3814
aI3734
aI3815
aI3816
aI3817
aI3818
aI3819
aI3820
aI3821
aI3822
aI3901
aI3902
aI3735
asI5034
(lp2061
I3815
aI3814
aI3816
aI3817
aI3818
aI3819
aI3820
aI3821
aI3822
aI3823
asI5035
(lp2062
I3817
aI3816
aI3818
aI3819
aI3820
aI3821
aI3822
aI3823
aI3824
asI5036
(lp2063
I3818
aI3817
aI3819
aI3820
aI3821
aI3822
aI3823
aI3744
aI3743
aI3745
aI3746
aI3826
aI3825
aI3824
asI5037
(lp2064
I3819
aI3818
aI3820
aI3821
aI3822
aI3823
aI3744
aI3743
aI3745
aI3746
aI3666
aI3747
aI3748
aI3826
asI5038
(lp2065
I3821
aI3820
aI3822
aI3823
aI3744
aI3743
aI3745
aI3666
aI3665
aI3746
asI5039
(lp2066
I3823
aI3822
aI3824
aI3745
aI3744
aI3746
aI3666
aI3743
aI3665
asI5040
(lp2067
I2724
aI2723
aI2725
aI2646
aI2645
aI2567
aI2566
aI2644
aI2643
aI2722
aI2721
asI5041
(lp2068
I2804
aI2805
aI2726
aI2725
aI2727
aI2728
aI2649
aI2648
aI2650
aI2651
aI2572
aI2571
aI2573
aI2568
aI2567
aI2569
aI2570
aI2724
aI2723
aI2646
aI2645
aI2566
asI5042
(lp2069
I2722
aI2721
aI2723
aI2724
aI2725
aI2726
aI2727
aI2728
aI2729
aI2730
aI2731
aI2732
aI2733
aI2734
aI2735
aI2736
aI2737
aI2738
aI2739
aI2740
aI2741
aI2574
aI2573
aI2575
aI2576
aI2657
aI2656
aI2660
aI2804
aI2805
aI2649
aI2648
aI2650
aI2651
aI2572
aI2571
asI5043
(lp2070
I2723
aI2722
aI2644
aI2643
aI2645
aI2646
aI2567
aI2566
aI2568
aI2569
aI2570
aI2651
aI2650
aI2652
aI2733
aI2732
aI2734
aI2735
aI2816
aI2815
aI2817
aI2818
aI2899
aI2898
aI2900
aI2981
aI2980
aI2982
aI2983
aI3064
aI3063
aI3065
aI3066
aI3147
aI3146
aI3148
aI3149
aI3230
aI3229
aI3231
aI3311
aI2742
aI2741
aI2823
aI2822
aI2824
aI2905
aI2904
aI2986
aI2985
aI2987
aI3068
aI3067
aI3150
aI2724
aI2725
aI2726
aI2727
aI2728
aI2729
aI2730
aI2731
aI2736
aI2737
aI2738
aI2739
aI2740
asI5044
(lp2071
I2569
aI2568
aI2570
aI2571
aI2572
aI2573
aI2574
aI2575
aI2576
aI2657
aI2656
aI2739
aI2738
aI2820
aI2819
aI2821
aI2902
aI2901
aI2983
aI2982
aI2984
aI3065
aI3064
aI3146
aI3145
aI3147
aI3228
aI3227
aI3309
aI3310
aI3391
aI3473
aI3312
aI3311
aI3313
aI3394
aI3393
aI3475
aI3474
aI3556
aI3555
aI3637
aI2651
aI2650
aI2652
aI2733
aI2732
aI2734
aI2735
aI2816
aI2815
aI2817
aI2818
aI2899
aI2898
aI2900
aI2981
aI2980
aI3063
aI3066
aI3148
aI3149
aI3230
aI3229
aI3231
asI5045
(lp2072
I2577
aI2576
aI2657
aI2740
aI2739
aI2741
aI2822
aI2821
aI2823
aI2824
aI2905
aI2904
aI2906
aI2986
aI2987
aI3068
aI3067
aI3149
aI3148
aI3230
aI3229
aI3231
aI3312
aI3311
aI3393
aI3392
aI3474
aI3473
aI3555
aI2656
aI2738
aI2820
aI2819
aI2902
aI2901
aI2983
aI2982
aI2984
aI3065
aI3064
aI3146
aI3145
aI3147
aI3228
aI3227
aI3309
aI3310
aI3391
asI5046
(lp2073
I2987
aI2986
aI3068
aI3067
aI3149
aI3148
aI3150
aI3231
aI3230
aI3312
aI3311
aI3393
aI3392
aI3474
aI3473
aI3475
aI3556
aI3555
aI3637
aI3229
asI5047
(lp2074
sI5113
(lp2075
I3822
aI3821
aI3901
aI3902
aI3823
aI3824
aI3745
aI3744
aI3746
aI3666
asI5114
(lp2076
I3823
aI3822
aI3824
aI3745
aI3744
aI3746
aI3666
asI5115
(lp2077
I3824
aI3823
aI3825
aI3746
aI3745
aI3666
aI3744
asI5116
(lp2078
I3825
aI3824
aI3746
aI3745
aI3826
aI3666
asI5117
(lp2079
I3747
aI3746
aI3748
aI3666
asI5118
(lp2080
sI5119
(lp2081
I2722
aI2721
aI2723
as.